Archive member included because of file (symbol)

contiki-wismote.a(contiki-wismote)
                              obj_wismote/contiki-wismote-main.o (init_platform)
contiki-wismote.a(button-sensor.o)
                              border-router.co (button_sensor)
contiki-wismote.a(xmem.o)     obj_wismote/contiki-wismote-main.o (xmem_init)
contiki-wismote.a(node-id.o)  obj_wismote/contiki-wismote-main.o (node_id_restore)
contiki-wismote.a(sensors.o)  border-router.co (sensors_event)
contiki-wismote.a(cc2520.o)   obj_wismote/contiki-wismote-main.o (cc2520_set_channel)
contiki-wismote.a(cc2520-arch.o)
                              contiki-wismote.a(cc2520.o) (cc2520_arch_init)
contiki-wismote.a(uart1.o)    obj_wismote/contiki-wismote-main.o (uart1_active)
contiki-wismote.a(slip_uart1.o)
                              obj_wismote/slip-bridge.o (slip_arch_writeb)
contiki-wismote.a(slip.o)     obj_wismote/slip-bridge.o (slip_process)
contiki-wismote.a(msp430.o)   obj_wismote/contiki-wismote-main.o (msp430_cpu_init)
contiki-wismote.a(clock.o)    obj_wismote/contiki-wismote-main.o (clock_init)
contiki-wismote.a(leds.o)     obj_wismote/contiki-wismote-main.o (leds_init)
contiki-wismote.a(leds-arch.o)
                              contiki-wismote.a(leds.o) (leds_arch_init)
contiki-wismote.a(watchdog.o)
                              obj_wismote/contiki-wismote-main.o (watchdog_start)
contiki-wismote.a(rtimer-arch.o)
                              obj_wismote/contiki-wismote-main.o (rtimer_arch_now)
contiki-wismote.a(autostart.o)
                              obj_wismote/contiki-wismote-main.o (autostart_start)
contiki-wismote.a(ctimer.o)   obj_wismote/contiki-wismote-main.o (ctimer_init)
contiki-wismote.a(energest.o)
                              obj_wismote/contiki-wismote-main.o (energest_init)
contiki-wismote.a(etimer.o)   contiki-wismote.a(clock.o) (etimer_request_poll)
contiki-wismote.a(process.o)  border-router.co (process_current)
contiki-wismote.a(rtimer.o)   obj_wismote/contiki-wismote-main.o (rtimer_init)
contiki-wismote.a(timer.o)    obj_wismote/httpd-simple.o (timer_set)
contiki-wismote.a(list.o)     contiki-wismote.a(ctimer.o) (list_init)
contiki-wismote.a(memb.o)     obj_wismote/httpd-simple.o (memb_init)
contiki-wismote.a(random.o)   obj_wismote/contiki-wismote-main.o (random_init)
contiki-wismote.a(sicslowpan.o)
                              obj_wismote/contiki-wismote-main.o (sicslowpan_driver)
contiki-wismote.a(uip6.o)     border-router.co (uip_aligned_buf)
contiki-wismote.a(uip-ds6.o)  contiki-wismote.a(uip6.o) (uip_ds6_is_addr_onlink)
contiki-wismote.a(uip-ds6-nbr.o)
                              border-router.co (ds6_neighbors)
contiki-wismote.a(uip-ds6-route.o)
                              contiki-wismote.a(uip-ds6.o) (uip_ds6_route_init)
contiki-wismote.a(uip-icmp6.o)
                              contiki-wismote.a(uip6.o) (uip_icmp6_input)
contiki-wismote.a(uip-nd6.o)  contiki-wismote.a(uip6.o) (uip_nd6_init)
contiki-wismote.a(psock.o)    border-router.co (psock_send)
contiki-wismote.a(tcpip.o)    contiki-wismote.a(sicslowpan.o) (tcpip_set_outputfunc)
contiki-wismote.a(uip-debug.o)
                              border-router.co (uip_debug_ipaddr_print)
contiki-wismote.a(rpl.o)      contiki-wismote.a(uip-ds6-nbr.o) (rpl_link_neighbor_callback)
contiki-wismote.a(rpl-dag.o)  contiki-wismote.a(rpl.o) (rpl_dag_init)
contiki-wismote.a(rpl-ext-header.)
                              contiki-wismote.a(uip6.o) (rpl_verify_hbh_header)
contiki-wismote.a(rpl-icmp6.o)
                              contiki-wismote.a(rpl-dag.o) (rpl_icmp6_update_nbr_table)
contiki-wismote.a(rpl-mrhof.o)
                              contiki-wismote.a(rpl-dag.o) (rpl_mrhof)
contiki-wismote.a(rpl-timers.o)
                              contiki-wismote.a(rpl.o) (rpl_reset_periodic_timer)
contiki-wismote.a(linkaddr.o)
                              obj_wismote/contiki-wismote-main.o (linkaddr_copy)
contiki-wismote.a(link-stats.o)
                              contiki-wismote.a(rpl-dag.o) (link_stats_from_lladdr)
contiki-wismote.a(nbr-table.o)
                              contiki-wismote.a(uip-ds6-nbr.o) (nbr_table_register)
contiki-wismote.a(net-debug.o)
                              contiki-wismote.a(rpl-icmp6.o) (net_debug_lladdr_print)
contiki-wismote.a(packetbuf.o)
                              contiki-wismote.a(cc2520.o) (packetbuf_set_datalen)
contiki-wismote.a(queuebuf.o)
                              obj_wismote/contiki-wismote-main.o (queuebuf_init)
contiki-wismote.a(csma.o)     border-router.co (csma_driver)
contiki-wismote.a(framer-802154.o)
                              contiki-wismote.a(sicslowpan.o) (framer_802154)
contiki-wismote.a(mac.o)      contiki-wismote.a(csma.o) (mac_call_sent_callback)
contiki-wismote.a(nullrdc.o)  obj_wismote/contiki-wismote-main.o (nullrdc_driver)
contiki-wismote.a(nullsec.o)  contiki-wismote.a(sicslowpan.o) (nullsec_driver)
contiki-wismote.a(spi.o)      contiki-wismote.a(xmem.o) (spi_init)
contiki-wismote.a(stimer.o)   contiki-wismote.a(uip-ds6.o) (stimer_set)
contiki-wismote.a(rpl-nbr-policy.)
                              contiki-wismote.a(nbr-table.o) (rpl_nbr_policy_find_removable)
contiki-wismote.a(frame802154.o)
                              contiki-wismote.a(framer-802154.o) (frame802154_get_pan_id)
contiki-wismote.a(mac-sequence.o)
                              contiki-wismote.a(nullrdc.o) (mac_sequence_is_duplicate)
/home/anagha/Downloads/msp430-47/bin/../lib/gcc/msp430/4.7.0/mcpu-430x/mmpy-16/msr20/mc20/libgcc.a(_udivmod16.o)
                              contiki-wismote.a(rpl-dag.o) (__udivhi3)
/home/anagha/Downloads/msp430-47/bin/../lib/gcc/msp430/4.7.0/mcpu-430x/mmpy-16/msr20/mc20/libgcc.a(_divmod16.o)
                              contiki-wismote.a(sicslowpan.o) (__divhi3)
/home/anagha/Downloads/msp430-47/bin/../lib/gcc/msp430/4.7.0/mcpu-430x/mmpy-16/msr20/mc20/libgcc.a(_udivmod32.o)
                              obj_wismote/contiki-wismote-main.o (__udivsi3)
/home/anagha/Downloads/msp430-47/bin/../lib/gcc/msp430/4.7.0/mcpu-430x/mmpy-16/msr20/mc20/libgcc.a(_divmod32.o)
                              contiki-wismote.a(link-stats.o) (__divsi3)
/home/anagha/Downloads/msp430-47/bin/../lib/gcc/msp430/4.7.0/../../../../msp430/lib/mcpu-430x/mmpy-16/msr20/mc20/libc.a(printf.o)
                              obj_wismote/slip-bridge.o (printf)
/home/anagha/Downloads/msp430-47/bin/../lib/gcc/msp430/4.7.0/../../../../msp430/lib/mcpu-430x/mmpy-16/msr20/mc20/libc.a(sprintf.o)
                              border-router.co (snprintf)
/home/anagha/Downloads/msp430-47/bin/../lib/gcc/msp430/4.7.0/../../../../msp430/lib/mcpu-430x/mmpy-16/msr20/mc20/libc.a(vuprintf.o)
                              /home/anagha/Downloads/msp430-47/bin/../lib/gcc/msp430/4.7.0/../../../../msp430/lib/mcpu-430x/mmpy-16/msr20/mc20/libc.a(printf.o) (vuprintf)
/home/anagha/Downloads/msp430-47/bin/../lib/gcc/msp430/4.7.0/../../../../msp430/lib/mcpu-430x/mmpy-16/msr20/mc20/libc.a(puts.o)
                              border-router.co (puts)
/home/anagha/Downloads/msp430-47/bin/../lib/gcc/msp430/4.7.0/../../../../msp430/lib/mcpu-430x/mmpy-16/msr20/mc20/libc.a(rand.o)
                              contiki-wismote.a(random.o) (rand)
/home/anagha/Downloads/msp430-47/bin/../lib/gcc/msp430/4.7.0/../../../../msp430/lib/mcpu-430x/mmpy-16/msr20/mc20/libc.a(strncmp.o)
                              obj_wismote/httpd-simple.o (strncmp)
/home/anagha/Downloads/msp430-47/bin/../lib/gcc/msp430/4.7.0/../../../../msp430/lib/mcpu-430x/mmpy-16/msr20/mc20/libc.a(memcmp.o)
                              obj_wismote/slip-bridge.o (memcmp)
/home/anagha/Downloads/msp430-47/bin/../lib/gcc/msp430/4.7.0/../../../../msp430/lib/mcpu-430x/mmpy-16/msr20/mc20/libc.a(strcpy.o)
                              border-router.co (strcpy)
/home/anagha/Downloads/msp430-47/bin/../lib/gcc/msp430/4.7.0/../../../../msp430/lib/mcpu-430x/mmpy-16/msr20/mc20/libc.a(strncpy.o)
                              obj_wismote/httpd-simple.o (strncpy)
/home/anagha/Downloads/msp430-47/bin/../lib/gcc/msp430/4.7.0/../../../../msp430/lib/mcpu-430x/mmpy-16/msr20/mc20/libc.a(memcpy.o)
                              border-router.co (memcpy)
/home/anagha/Downloads/msp430-47/bin/../lib/gcc/msp430/4.7.0/../../../../msp430/lib/mcpu-430x/mmpy-16/msr20/mc20/libc.a(memmove.o)
                              contiki-wismote.a(sicslowpan.o) (memmove)
/home/anagha/Downloads/msp430-47/bin/../lib/gcc/msp430/4.7.0/../../../../msp430/lib/mcpu-430x/mmpy-16/msr20/mc20/libc.a(memset.o)
                              obj_wismote/slip-bridge.o (memset)
/home/anagha/Downloads/msp430-47/bin/../lib/gcc/msp430/4.7.0/mcpu-430x/mmpy-16/msr20/mc20/libgcc.a(_mulsi3.o)
                              /home/anagha/Downloads/msp430-47/bin/../lib/gcc/msp430/4.7.0/../../../../msp430/lib/mcpu-430x/mmpy-16/msr20/mc20/libc.a(rand.o) (__mulsi3)
/home/anagha/Downloads/msp430-47/bin/../lib/gcc/msp430/4.7.0/mcpu-430x/mmpy-16/msr20/mc20/libgcc.a(_udivmod64.o)
                              /home/anagha/Downloads/msp430-47/bin/../lib/gcc/msp430/4.7.0/../../../../msp430/lib/mcpu-430x/mmpy-16/msr20/mc20/libc.a(vuprintf.o) (__udivdi3)
/home/anagha/Downloads/msp430-47/bin/../lib/gcc/msp430/4.7.0/mcpu-430x/mmpy-16/msr20/mc20/libcrt0.a(_reset_vector__.o)
                              (_reset_vector__)
/home/anagha/Downloads/msp430-47/bin/../lib/gcc/msp430/4.7.0/mcpu-430x/mmpy-16/msr20/mc20/libcrt0.a(__watchdog_support.o)
                              /home/anagha/Downloads/msp430-47/bin/../lib/gcc/msp430/4.7.0/mcpu-430x/mmpy-16/msr20/mc20/libcrt0.a(_reset_vector__.o) (__watchdog_support)
/home/anagha/Downloads/msp430-47/bin/../lib/gcc/msp430/4.7.0/mcpu-430x/mmpy-16/msr20/mc20/libcrt0.a(__init_stack.o)
                              /home/anagha/Downloads/msp430-47/bin/../lib/gcc/msp430/4.7.0/mcpu-430x/mmpy-16/msr20/mc20/libcrt0.a(_reset_vector__.o) (__init_stack)
/home/anagha/Downloads/msp430-47/bin/../lib/gcc/msp430/4.7.0/mcpu-430x/mmpy-16/msr20/mc20/libcrt0.a(__low_level_init.o)
                              /home/anagha/Downloads/msp430-47/bin/../lib/gcc/msp430/4.7.0/mcpu-430x/mmpy-16/msr20/mc20/libcrt0.a(_reset_vector__.o) (__low_level_init)
/home/anagha/Downloads/msp430-47/bin/../lib/gcc/msp430/4.7.0/mcpu-430x/mmpy-16/msr20/mc20/libcrt0.a(_copy_data.o)
                              /home/anagha/Downloads/msp430-47/bin/../lib/gcc/msp430/4.7.0/mcpu-430x/mmpy-16/msr20/mc20/libcrt0.a(_reset_vector__.o) (__do_copy_data)
/home/anagha/Downloads/msp430-47/bin/../lib/gcc/msp430/4.7.0/mcpu-430x/mmpy-16/msr20/mc20/libcrt0.a(_clear_bss.o)
                              /home/anagha/Downloads/msp430-47/bin/../lib/gcc/msp430/4.7.0/mcpu-430x/mmpy-16/msr20/mc20/libcrt0.a(_reset_vector__.o) (__do_clear_bss)
/home/anagha/Downloads/msp430-47/bin/../lib/gcc/msp430/4.7.0/mcpu-430x/mmpy-16/msr20/mc20/libcrt0.a(__stop_progExec__.o)
                              /home/anagha/Downloads/msp430-47/bin/../lib/gcc/msp430/4.7.0/mcpu-430x/mmpy-16/msr20/mc20/libcrt0.a(_reset_vector__.o) (__stop_progExec__)
/home/anagha/Downloads/msp430-47/bin/../lib/gcc/msp430/4.7.0/mcpu-430x/mmpy-16/msr20/mc20/libcrt0.a(_endless_loop__.o)
                              /home/anagha/Downloads/msp430-47/bin/../lib/gcc/msp430/4.7.0/mcpu-430x/mmpy-16/msr20/mc20/libcrt0.a(_reset_vector__.o) (_endless_loop__)
/home/anagha/Downloads/msp430-47/bin/../lib/gcc/msp430/4.7.0/mcpu-430x/mmpy-16/msr20/mc20/libcrt0.a(_unexpected_.o)
                              /home/anagha/Downloads/msp430-47/bin/../lib/gcc/msp430/4.7.0/mcpu-430x/mmpy-16/msr20/mc20/crt0ivtbl64.o (_unexpected_)

Allocating common symbols
Common symbol       size              file

energest_total_time
                    0x30              contiki-wismote.a(energest.o)
uip_ds6_timer_ra    0x8               contiki-wismote.a(uip-ds6.o)
uip_ds6_if          0xec              contiki-wismote.a(uip-ds6.o)
uip_ds6_netif_addr_list_offset
                    0x1               contiki-wismote.a(uip-ds6.o)
uip_len             0x2               contiki-wismote.a(uip6.o)
energest_total_count
                    0x2               contiki-wismote.a(energest.o)
cc2520_sfd_counter  0x1               contiki-wismote.a(cc2520.o)
cc2520_sfd_start_time
                    0x2               contiki-wismote.a(cc2520.o)
slip_active         0x1               contiki-wismote.a(slip.o)
uip_ds6_addr_size   0x1               contiki-wismote.a(uip-ds6.o)
uip_sappdata        0x2               contiki-wismote.a(uip6.o)
energest_current_mode
                    0xc               contiki-wismote.a(energest.o)
packetbuf_addrs     0x10              contiki-wismote.a(packetbuf.o)
uip_acc32           0x4               contiki-wismote.a(uip6.o)
cc2520_sfd_end_time
                    0x2               contiki-wismote.a(cc2520.o)
cc2520_time_of_departure
                    0x2               contiki-wismote.a(cc2520.o)
uip_ds6_prefix_list
                    0x5a              contiki-wismote.a(uip-ds6.o)
process_maxevents   0x1               contiki-wismote.a(process.o)
cc2520_packets_seen
                    0x2               contiki-wismote.a(cc2520.o)
uip_lladdr          0x8               contiki-wismote.a(uip6.o)
uip_aligned_buf     0xf0              contiki-wismote.a(uip6.o)
uip_flags           0x1               contiki-wismote.a(uip6.o)
periodic_timer      0x16              contiki-wismote.a(link-stats.o)
uip_ds6_timer_periodic
                    0xc               contiki-wismote.a(uip-ds6.o)
uip_next_hdr        0x2               contiki-wismote.a(uip6.o)
linkaddr_node_addr  0x8               contiki-wismote.a(linkaddr.o)
cc2520_packets_read
                    0x2               contiki-wismote.a(cc2520.o)
default_instance    0x2               contiki-wismote.a(rpl-dag.o)
cc2520_last_rssi    0x1               contiki-wismote.a(cc2520.o)
uip_udp_conn        0x2               contiki-wismote.a(uip6.o)
cc2520_time_of_arrival
                    0x2               contiki-wismote.a(cc2520.o)
packetbuf_attrs     0x1e              contiki-wismote.a(packetbuf.o)
msp430_dco_required
                    0x2               contiki-wismote.a(msp430.o)
instance_table      0x2b8             contiki-wismote.a(rpl-dag.o)
uip_appdata         0x2               contiki-wismote.a(uip6.o)
uip_conn            0x2               contiki-wismote.a(uip6.o)
tcpip_event         0x1               contiki-wismote.a(tcpip.o)
uip_conns           0xb0              contiki-wismote.a(uip6.o)
cc2520_authority_level_of_sender
                    0x2               contiki-wismote.a(cc2520.o)
uip_listenports     0x10              contiki-wismote.a(uip6.o)
energest_current_time
                    0x18              contiki-wismote.a(energest.o)
sensors_flags       0x2               contiki-wismote.a(contiki-wismote)
sensors_event       0x1               contiki-wismote.a(sensors.o)
cc2520_last_correlation
                    0x1               contiki-wismote.a(cc2520.o)
uip_slen            0x2               contiki-wismote.a(uip6.o)
uip_udp_conns       0x138             contiki-wismote.a(uip6.o)

Discarded input sections

 .data          0x00000000        0x0 /home/anagha/Downloads/msp430-47/bin/../lib/gcc/msp430/4.7.0/mcpu-430x/mmpy-16/msr20/mc20/crt0ivtbl64.o
 .bss           0x00000000        0x0 /home/anagha/Downloads/msp430-47/bin/../lib/gcc/msp430/4.7.0/mcpu-430x/mmpy-16/msr20/mc20/crt0ivtbl64.o
 .text.crt0     0x00000000        0x0 /home/anagha/Downloads/msp430-47/bin/../lib/gcc/msp430/4.7.0/mcpu-430x/mmpy-16/msr20/mc20/crt0ivtbl64.o
 .text          0x00000000        0x0 border-router.co
 .data          0x00000000        0x0 border-router.co
 .bss           0x00000000        0x0 border-router.co
 .text          0x00000000        0x0 obj_wismote/slip-bridge.o
 .data          0x00000000        0x0 obj_wismote/slip-bridge.o
 .bss           0x00000000        0x0 obj_wismote/slip-bridge.o
 .text          0x00000000        0x0 obj_wismote/httpd-simple.o
 .data          0x00000000        0x0 obj_wismote/httpd-simple.o
 .bss           0x00000000        0x0 obj_wismote/httpd-simple.o
 .rodata.http_index_html
                0x00000000        0xc obj_wismote/httpd-simple.o
 .text          0x00000000        0x0 obj_wismote/contiki-wismote-main.o
 .data          0x00000000        0x0 obj_wismote/contiki-wismote-main.o
 .bss           0x00000000        0x0 obj_wismote/contiki-wismote-main.o
 .any.text.uip_log
                0x00000000        0x6 obj_wismote/contiki-wismote-main.o
 .text          0x00000000        0x0 contiki-wismote.a(contiki-wismote)
 .data          0x00000000        0x0 contiki-wismote.a(contiki-wismote)
 .bss           0x00000000        0x0 contiki-wismote.a(contiki-wismote)
 .text          0x00000000        0x0 contiki-wismote.a(button-sensor.o)
 .data          0x00000000        0x0 contiki-wismote.a(button-sensor.o)
 .bss           0x00000000        0x0 contiki-wismote.a(button-sensor.o)
 .text          0x00000000        0x0 contiki-wismote.a(xmem.o)
 .data          0x00000000        0x0 contiki-wismote.a(xmem.o)
 .bss           0x00000000        0x0 contiki-wismote.a(xmem.o)
 .any.text.write_enable
                0x00000000       0x56 contiki-wismote.a(xmem.o)
 .any.text.xmem_pwrite
                0x00000000      0x144 contiki-wismote.a(xmem.o)
 .any.text.xmem_erase
                0x00000000       0xca contiki-wismote.a(xmem.o)
 .text          0x00000000        0x0 contiki-wismote.a(node-id.o)
 .data          0x00000000        0x0 contiki-wismote.a(node-id.o)
 .bss           0x00000000        0x0 contiki-wismote.a(node-id.o)
 .any.text.node_id_burn
                0x00000000       0x36 contiki-wismote.a(node-id.o)
 .text          0x00000000        0x0 contiki-wismote.a(sensors.o)
 .data          0x00000000        0x0 contiki-wismote.a(sensors.o)
 .bss           0x00000000        0x0 contiki-wismote.a(sensors.o)
 .any.text.sensors_first
                0x00000000        0x6 contiki-wismote.a(sensors.o)
 .any.text.sensors_next
                0x00000000       0x24 contiki-wismote.a(sensors.o)
 .any.text.sensors_find
                0x00000000       0x40 contiki-wismote.a(sensors.o)
 .text          0x00000000        0x0 contiki-wismote.a(cc2520.o)
 .data          0x00000000        0x0 contiki-wismote.a(cc2520.o)
 .bss           0x00000000        0x0 contiki-wismote.a(cc2520.o)
 .any.text.cc2520_get_channel
                0x00000000        0x6 contiki-wismote.a(cc2520.o)
 .any.text.cc2520_set_txpower
                0x00000000       0x14 contiki-wismote.a(cc2520.o)
 .any.text.cc2520_rssi
                0x00000000       0x64 contiki-wismote.a(cc2520.o)
 .any.text.cc2520_cca_valid
                0x00000000       0x26 contiki-wismote.a(cc2520.o)
 .any.text.cc2520_set_cca_threshold
                0x00000000       0x14 contiki-wismote.a(cc2520.o)
 .text          0x00000000        0x0 contiki-wismote.a(cc2520-arch.o)
 .data          0x00000000        0x0 contiki-wismote.a(cc2520-arch.o)
 .bss           0x00000000        0x0 contiki-wismote.a(cc2520-arch.o)
 .text          0x00000000        0x0 contiki-wismote.a(uart1.o)
 .data          0x00000000        0x0 contiki-wismote.a(uart1.o)
 .bss           0x00000000        0x0 contiki-wismote.a(uart1.o)
 .text          0x00000000        0x0 contiki-wismote.a(slip_uart1.o)
 .data          0x00000000        0x0 contiki-wismote.a(slip_uart1.o)
 .bss           0x00000000        0x0 contiki-wismote.a(slip_uart1.o)
 .text          0x00000000        0x0 contiki-wismote.a(slip.o)
 .data          0x00000000        0x0 contiki-wismote.a(slip.o)
 .bss           0x00000000        0x0 contiki-wismote.a(slip.o)
 .any.text.slip_write
                0x00000000       0x52 contiki-wismote.a(slip.o)
 .text          0x00000000        0x0 contiki-wismote.a(msp430.o)
 .data          0x00000000        0x0 contiki-wismote.a(msp430.o)
 .bss           0x00000000        0x0 contiki-wismote.a(msp430.o)
 .any.text.msp430_add_lpm_req
                0x00000000        0xc contiki-wismote.a(msp430.o)
 .any.text.msp430_remove_lpm_req
                0x00000000        0xc contiki-wismote.a(msp430.o)
 .any.text.sbrk
                0x00000000       0x1e contiki-wismote.a(msp430.o)
 .text          0x00000000        0x0 contiki-wismote.a(clock.o)
 .data          0x00000000        0x0 contiki-wismote.a(clock.o)
 .bss           0x00000000        0x0 contiki-wismote.a(clock.o)
 .any.text.clock_set
                0x00000000       0x16 contiki-wismote.a(clock.o)
 .any.text.clock_fine_max
                0x00000000        0x6 contiki-wismote.a(clock.o)
 .any.text.clock_fine
                0x00000000        0xc contiki-wismote.a(clock.o)
 .any.text.clock_set_seconds
                0x00000000       0x18 contiki-wismote.a(clock.o)
 .any.text.clock_counter
                0x00000000        0xe contiki-wismote.a(clock.o)
 .text          0x00000000        0x0 contiki-wismote.a(leds.o)
 .data          0x00000000        0x0 contiki-wismote.a(leds.o)
 .bss           0x00000000        0x0 contiki-wismote.a(leds.o)
 .any.text.leds_get
                0x00000000        0x6 contiki-wismote.a(leds.o)
 .any.text.leds_set
                0x00000000        0x6 contiki-wismote.a(leds.o)
 .any.text.leds_toggle
                0x00000000        0xa contiki-wismote.a(leds.o)
 .any.text.leds_blink
                0x00000000       0x20 contiki-wismote.a(leds.o)
 .text          0x00000000        0x0 contiki-wismote.a(leds-arch.o)
 .data          0x00000000        0x0 contiki-wismote.a(leds-arch.o)
 .bss           0x00000000        0x0 contiki-wismote.a(leds-arch.o)
 .any.text.leds_arch_get
                0x00000000       0x2c contiki-wismote.a(leds-arch.o)
 .text          0x00000000        0x0 contiki-wismote.a(watchdog.o)
 .data          0x00000000        0x0 contiki-wismote.a(watchdog.o)
 .bss           0x00000000        0x0 contiki-wismote.a(watchdog.o)
 .any.text.watchdog_reboot
                0x00000000        0x6 contiki-wismote.a(watchdog.o)
 .text          0x00000000        0x0 contiki-wismote.a(rtimer-arch.o)
 .data          0x00000000        0x0 contiki-wismote.a(rtimer-arch.o)
 .bss           0x00000000        0x0 contiki-wismote.a(rtimer-arch.o)
 .text          0x00000000        0x0 contiki-wismote.a(autostart.o)
 .data          0x00000000        0x0 contiki-wismote.a(autostart.o)
 .bss           0x00000000        0x0 contiki-wismote.a(autostart.o)
 .any.text.autostart_exit
                0x00000000       0x14 contiki-wismote.a(autostart.o)
 .text          0x00000000        0x0 contiki-wismote.a(ctimer.o)
 .data          0x00000000        0x0 contiki-wismote.a(ctimer.o)
 .bss           0x00000000        0x0 contiki-wismote.a(ctimer.o)
 .any.text.ctimer_expired
                0x00000000       0x30 contiki-wismote.a(ctimer.o)
 .text          0x00000000        0x0 contiki-wismote.a(energest.o)
 .data          0x00000000        0x0 contiki-wismote.a(energest.o)
 .bss           0x00000000        0x0 contiki-wismote.a(energest.o)
 .any.text.energest_leveldevice_leveltime
                0x00000000        0x6 contiki-wismote.a(energest.o)
 .text          0x00000000        0x0 contiki-wismote.a(etimer.o)
 .data          0x00000000        0x0 contiki-wismote.a(etimer.o)
 .bss           0x00000000        0x0 contiki-wismote.a(etimer.o)
 .any.text.etimer_reset_with_new_interval
                0x00000000       0x1e contiki-wismote.a(etimer.o)
 .any.text.etimer_adjust
                0x00000000       0x1a contiki-wismote.a(etimer.o)
 .any.text.etimer_start_time
                0x00000000        0x8 contiki-wismote.a(etimer.o)
 .text          0x00000000        0x0 contiki-wismote.a(process.o)
 .data          0x00000000        0x0 contiki-wismote.a(process.o)
 .bss           0x00000000        0x0 contiki-wismote.a(process.o)
 .any.text.process_exit
                0x00000000        0xa contiki-wismote.a(process.o)
 .any.text.process_is_running
                0x00000000        0xe contiki-wismote.a(process.o)
 .text          0x00000000        0x0 contiki-wismote.a(rtimer.o)
 .data          0x00000000        0x0 contiki-wismote.a(rtimer.o)
 .bss           0x00000000        0x0 contiki-wismote.a(rtimer.o)
 .any.text.rtimer_set
                0x00000000       0x24 contiki-wismote.a(rtimer.o)
 .text          0x00000000        0x0 contiki-wismote.a(timer.o)
 .data          0x00000000        0x0 contiki-wismote.a(timer.o)
 .bss           0x00000000        0x0 contiki-wismote.a(timer.o)
 .any.text.timer_remaining
                0x00000000       0x24 contiki-wismote.a(timer.o)
 .text          0x00000000        0x0 contiki-wismote.a(list.o)
 .data          0x00000000        0x0 contiki-wismote.a(list.o)
 .bss           0x00000000        0x0 contiki-wismote.a(list.o)
 .any.text.list_copy
                0x00000000        0x6 contiki-wismote.a(list.o)
 .any.text.list_chop
                0x00000000       0x1a contiki-wismote.a(list.o)
 .any.text.list_pop
                0x00000000        0xe contiki-wismote.a(list.o)
 .any.text.list_insert
                0x00000000       0x16 contiki-wismote.a(list.o)
 .text          0x00000000        0x0 contiki-wismote.a(memb.o)
 .data          0x00000000        0x0 contiki-wismote.a(memb.o)
 .bss           0x00000000        0x0 contiki-wismote.a(memb.o)
 .text          0x00000000        0x0 contiki-wismote.a(random.o)
 .data          0x00000000        0x0 contiki-wismote.a(random.o)
 .bss           0x00000000        0x0 contiki-wismote.a(random.o)
 .text          0x00000000        0x0 contiki-wismote.a(sicslowpan.o)
 .data          0x00000000        0x0 contiki-wismote.a(sicslowpan.o)
 .bss           0x00000000        0x0 contiki-wismote.a(sicslowpan.o)
 .any.text.rime_sniffer_add
                0x00000000        0x6 contiki-wismote.a(sicslowpan.o)
 .any.text.rime_sniffer_remove
                0x00000000        0x6 contiki-wismote.a(sicslowpan.o)
 .any.text.sicslowpan_get_last_rssi
                0x00000000        0x6 contiki-wismote.a(sicslowpan.o)
 .text          0x00000000        0x0 contiki-wismote.a(uip6.o)
 .data          0x00000000        0x0 contiki-wismote.a(uip6.o)
 .bss           0x00000000        0x0 contiki-wismote.a(uip6.o)
 .any.text.uip_chksum
                0x00000000       0x18 contiki-wismote.a(uip6.o)
 .any.text.uip_connect
                0x00000000      0x108 contiki-wismote.a(uip6.o)
 .any.text.uip_udp_new
                0x00000000       0xa2 contiki-wismote.a(uip6.o)
 .any.text.uip_htons
                0x00000000        0xc contiki-wismote.a(uip6.o)
 .text          0x00000000        0x0 contiki-wismote.a(uip-ds6.o)
 .data          0x00000000        0x0 contiki-wismote.a(uip-ds6.o)
 .bss           0x00000000        0x0 contiki-wismote.a(uip-ds6.o)
 .any.text.uip_ds6_prefix_rm
                0x00000000        0xa contiki-wismote.a(uip-ds6.o)
 .any.text.uip_ds6_prefix_lookup
                0x00000000       0x28 contiki-wismote.a(uip-ds6.o)
 .any.text.uip_ds6_aaddr_add
                0x00000000       0x46 contiki-wismote.a(uip-ds6.o)
 .any.text.uip_ds6_aaddr_rm
                0x00000000        0xa contiki-wismote.a(uip-ds6.o)
 .any.text.uip_ds6_aaddr_lookup
                0x00000000       0x28 contiki-wismote.a(uip-ds6.o)
 .bss.locaaddr  0x00000000        0x2 contiki-wismote.a(uip-ds6.o)
 .text          0x00000000        0x0 contiki-wismote.a(uip-ds6-nbr.o)
 .data          0x00000000        0x0 contiki-wismote.a(uip-ds6-nbr.o)
 .bss           0x00000000        0x0 contiki-wismote.a(uip-ds6-nbr.o)
 .any.text.uip_ds6_nbr_get_ipaddr
                0x00000000        0x2 contiki-wismote.a(uip-ds6-nbr.o)
 .text          0x00000000        0x0 contiki-wismote.a(uip-ds6-route.o)
 .data          0x00000000        0x0 contiki-wismote.a(uip-ds6-route.o)
 .bss           0x00000000        0x0 contiki-wismote.a(uip-ds6-route.o)
 .any.text.uip_ds6_notification_add
                0x00000000       0x18 contiki-wismote.a(uip-ds6-route.o)
 .any.text.uip_ds6_notification_rm
                0x00000000        0xc contiki-wismote.a(uip-ds6-route.o)
 .any.text.uip_ds6_route_num_routes
                0x00000000        0x6 contiki-wismote.a(uip-ds6-route.o)
 .any.text.uip_ds6_aodv_route_rm
                0x00000000       0xb0 contiki-wismote.a(uip-ds6-route.o)
 .any.text.uip_ds6_route_rm_by_nexthop
                0x00000000       0x14 contiki-wismote.a(uip-ds6-route.o)
 .rodata.uip_ds6_defrt_choose
                0x00000000       0x50 contiki-wismote.a(uip-ds6-route.o)
 .any.text.uip_ds6_defrt_choose
                0x00000000       0x80 contiki-wismote.a(uip-ds6-route.o)
 .text          0x00000000        0x0 contiki-wismote.a(uip-icmp6.o)
 .data          0x00000000        0x0 contiki-wismote.a(uip-icmp6.o)
 .bss           0x00000000        0x0 contiki-wismote.a(uip-icmp6.o)
 .any.text.uip_icmp6_echo_reply_callback_add
                0x00000000       0x18 contiki-wismote.a(uip-icmp6.o)
 .any.text.uip_icmp6_echo_reply_callback_rm
                0x00000000        0xc contiki-wismote.a(uip-icmp6.o)
 .text          0x00000000        0x0 contiki-wismote.a(uip-nd6.o)
 .data          0x00000000        0x0 contiki-wismote.a(uip-nd6.o)
 .bss           0x00000000        0x0 contiki-wismote.a(uip-nd6.o)
 .any.text.uip_nd6_ns_output
                0x00000000      0x17a contiki-wismote.a(uip-nd6.o)
 .text          0x00000000        0x0 contiki-wismote.a(psock.o)
 .data          0x00000000        0x0 contiki-wismote.a(psock.o)
 .bss           0x00000000        0x0 contiki-wismote.a(psock.o)
 .any.text.psock_generator_send
                0x00000000       0x7c contiki-wismote.a(psock.o)
 .any.text.psock_readbuf_len
                0x00000000       0xe0 contiki-wismote.a(psock.o)
 .text          0x00000000        0x0 contiki-wismote.a(tcpip.o)
 .data          0x00000000        0x0 contiki-wismote.a(tcpip.o)
 .bss           0x00000000        0x0 contiki-wismote.a(tcpip.o)
 .any.text.tcp_unlisten
                0x00000000       0x26 contiki-wismote.a(tcpip.o)
 .any.text.udp_attach
                0x00000000        0xc contiki-wismote.a(tcpip.o)
 .any.text.udp_new
                0x00000000       0x1a contiki-wismote.a(tcpip.o)
 .any.text.udp_broadcast_new
                0x00000000       0x46 contiki-wismote.a(tcpip.o)
 .any.text.tcpip_poll_udp
                0x00000000        0xe contiki-wismote.a(tcpip.o)
 .any.text.tcpip_poll_tcp
                0x00000000        0xe contiki-wismote.a(tcpip.o)
 .any.text.tcp_connect
                0x00000000       0x22 contiki-wismote.a(tcpip.o)
 .text          0x00000000        0x0 contiki-wismote.a(uip-debug.o)
 .data          0x00000000        0x0 contiki-wismote.a(uip-debug.o)
 .bss           0x00000000        0x0 contiki-wismote.a(uip-debug.o)
 .text          0x00000000        0x0 contiki-wismote.a(rpl.o)
 .data          0x00000000        0x0 contiki-wismote.a(rpl.o)
 .bss           0x00000000        0x0 contiki-wismote.a(rpl.o)
 .any.text.rpl_set_mode
                0x00000000       0x52 contiki-wismote.a(rpl.o)
 .text          0x00000000        0x0 contiki-wismote.a(rpl-dag.o)
 .data          0x00000000        0x0 contiki-wismote.a(rpl-dag.o)
 .bss           0x00000000        0x0 contiki-wismote.a(rpl-dag.o)
 .any.text.rpl_get_parent_rank
                0x00000000       0x18 contiki-wismote.a(rpl-dag.o)
 .any.text.rpl_get_nbr
                0x00000000       0x18 contiki-wismote.a(rpl-dag.o)
 .any.text.rpl_set_default_instance
                0x00000000        0x6 contiki-wismote.a(rpl-dag.o)
 .any.text.rpl_get_default_instance
                0x00000000        0x6 contiki-wismote.a(rpl-dag.o)
 .rodata.rpl_free_instance
                0x00000000       0x1e contiki-wismote.a(rpl-dag.o)
 .any.text.rpl_free_instance
                0x00000000       0x78 contiki-wismote.a(rpl-dag.o)
 .any.text.rpl_has_downward_route
                0x00000000       0x22 contiki-wismote.a(rpl-dag.o)
 .rodata.rpl_get_dag
                0x00000000       0x19 contiki-wismote.a(rpl-dag.o)
 .any.text.rpl_get_dag
                0x00000000       0x5c contiki-wismote.a(rpl-dag.o)
 .text          0x00000000        0x0 contiki-wismote.a(rpl-ext-header.)
 .data          0x00000000        0x0 contiki-wismote.a(rpl-ext-header.)
 .bss           0x00000000        0x0 contiki-wismote.a(rpl-ext-header.)
 .text          0x00000000        0x0 contiki-wismote.a(rpl-icmp6.o)
 .data          0x00000000        0x0 contiki-wismote.a(rpl-icmp6.o)
 .bss           0x00000000        0x0 contiki-wismote.a(rpl-icmp6.o)
 .any.text.dao_ack_output
                0x00000000        0x2 contiki-wismote.a(rpl-icmp6.o)
 .text          0x00000000        0x0 contiki-wismote.a(rpl-mrhof.o)
 .data          0x00000000        0x0 contiki-wismote.a(rpl-mrhof.o)
 .bss           0x00000000        0x0 contiki-wismote.a(rpl-mrhof.o)
 .text          0x00000000        0x0 contiki-wismote.a(rpl-timers.o)
 .data          0x00000000        0x0 contiki-wismote.a(rpl-timers.o)
 .bss           0x00000000        0x0 contiki-wismote.a(rpl-timers.o)
 .any.text.rpl_schedule_dao_immediately
                0x00000000        0xa contiki-wismote.a(rpl-timers.o)
 .any.text.rpl_cancel_dao
                0x00000000       0x1a contiki-wismote.a(rpl-timers.o)
 .text          0x00000000        0x0 contiki-wismote.a(linkaddr.o)
 .data          0x00000000        0x0 contiki-wismote.a(linkaddr.o)
 .bss           0x00000000        0x0 contiki-wismote.a(linkaddr.o)
 .text          0x00000000        0x0 contiki-wismote.a(link-stats.o)
 .data          0x00000000        0x0 contiki-wismote.a(link-stats.o)
 .bss           0x00000000        0x0 contiki-wismote.a(link-stats.o)
 .any.text.guess_etx_from_rssi
                0x00000000       0x42 contiki-wismote.a(link-stats.o)
 .text          0x00000000        0x0 contiki-wismote.a(nbr-table.o)
 .data          0x00000000        0x0 contiki-wismote.a(nbr-table.o)
 .bss           0x00000000        0x0 contiki-wismote.a(nbr-table.o)
 .any.text.nbr_table_update_lladdr
                0x00000000       0x48 contiki-wismote.a(nbr-table.o)
 .text          0x00000000        0x0 contiki-wismote.a(net-debug.o)
 .data          0x00000000        0x0 contiki-wismote.a(net-debug.o)
 .bss           0x00000000        0x0 contiki-wismote.a(net-debug.o)
 .text          0x00000000        0x0 contiki-wismote.a(packetbuf.o)
 .data          0x00000000        0x0 contiki-wismote.a(packetbuf.o)
 .bss           0x00000000        0x0 contiki-wismote.a(packetbuf.o)
 .any.text.packetbuf_compact
                0x00000000       0x3c contiki-wismote.a(packetbuf.o)
 .text          0x00000000        0x0 contiki-wismote.a(queuebuf.o)
 .data          0x00000000        0x0 contiki-wismote.a(queuebuf.o)
 .bss           0x00000000        0x0 contiki-wismote.a(queuebuf.o)
 .any.text.queuebuf_update_from_packetbuf
                0x00000000       0x22 contiki-wismote.a(queuebuf.o)
 .any.text.queuebuf_dataptr
                0x00000000       0x1c contiki-wismote.a(queuebuf.o)
 .any.text.queuebuf_datalen
                0x00000000        0x8 contiki-wismote.a(queuebuf.o)
 .any.text.queuebuf_addr
                0x00000000        0xe contiki-wismote.a(queuebuf.o)
 .any.text.queuebuf_debug_print
                0x00000000        0x2 contiki-wismote.a(queuebuf.o)
 .text          0x00000000        0x0 contiki-wismote.a(csma.o)
 .data          0x00000000        0x0 contiki-wismote.a(csma.o)
 .bss           0x00000000        0x0 contiki-wismote.a(csma.o)
 .text          0x00000000        0x0 contiki-wismote.a(framer-802154.o)
 .data          0x00000000        0x0 contiki-wismote.a(framer-802154.o)
 .bss           0x00000000        0x0 contiki-wismote.a(framer-802154.o)
 .text          0x00000000        0x0 contiki-wismote.a(mac.o)
 .data          0x00000000        0x0 contiki-wismote.a(mac.o)
 .bss           0x00000000        0x0 contiki-wismote.a(mac.o)
 .text          0x00000000        0x0 contiki-wismote.a(nullrdc.o)
 .data          0x00000000        0x0 contiki-wismote.a(nullrdc.o)
 .bss           0x00000000        0x0 contiki-wismote.a(nullrdc.o)
 .text          0x00000000        0x0 contiki-wismote.a(nullsec.o)
 .data          0x00000000        0x0 contiki-wismote.a(nullsec.o)
 .bss           0x00000000        0x0 contiki-wismote.a(nullsec.o)
 .text          0x00000000        0x0 contiki-wismote.a(spi.o)
 .data          0x00000000        0x0 contiki-wismote.a(spi.o)
 .bss           0x00000000        0x0 contiki-wismote.a(spi.o)
 .bss.spi_busy  0x00000000        0x1 contiki-wismote.a(spi.o)
 .text          0x00000000        0x0 contiki-wismote.a(stimer.o)
 .data          0x00000000        0x0 contiki-wismote.a(stimer.o)
 .bss           0x00000000        0x0 contiki-wismote.a(stimer.o)
 .any.text.stimer_reset
                0x00000000        0xe contiki-wismote.a(stimer.o)
 .any.text.stimer_restart
                0x00000000       0x14 contiki-wismote.a(stimer.o)
 .any.text.stimer_remaining
                0x00000000       0x24 contiki-wismote.a(stimer.o)
 .any.text.stimer_elapsed
                0x00000000       0x12 contiki-wismote.a(stimer.o)
 .text          0x00000000        0x0 contiki-wismote.a(rpl-nbr-policy.)
 .data          0x00000000        0x0 contiki-wismote.a(rpl-nbr-policy.)
 .bss           0x00000000        0x0 contiki-wismote.a(rpl-nbr-policy.)
 .text          0x00000000        0x0 contiki-wismote.a(frame802154.o)
 .data          0x00000000        0x0 contiki-wismote.a(frame802154.o)
 .bss           0x00000000        0x0 contiki-wismote.a(frame802154.o)
 .any.text.frame802154_set_pan_id
                0x00000000        0x6 contiki-wismote.a(frame802154.o)
 .any.text.frame802154_check_dest_panid
                0x00000000       0x36 contiki-wismote.a(frame802154.o)
 .any.text.frame802154_extract_linkaddr
                0x00000000       0x8c contiki-wismote.a(frame802154.o)
 .text          0x00000000        0x0 contiki-wismote.a(mac-sequence.o)
 .data          0x00000000        0x0 contiki-wismote.a(mac-sequence.o)
 .bss           0x00000000        0x0 contiki-wismote.a(mac-sequence.o)
 .text          0x00000000        0x0 /home/anagha/Downloads/msp430-47/bin/../lib/gcc/msp430/4.7.0/mcpu-430x/mmpy-16/msr20/mc20/libgcc.a(_udivmod16.o)
 .data          0x00000000        0x0 /home/anagha/Downloads/msp430-47/bin/../lib/gcc/msp430/4.7.0/mcpu-430x/mmpy-16/msr20/mc20/libgcc.a(_udivmod16.o)
 .bss           0x00000000        0x0 /home/anagha/Downloads/msp430-47/bin/../lib/gcc/msp430/4.7.0/mcpu-430x/mmpy-16/msr20/mc20/libgcc.a(_udivmod16.o)
 .text          0x00000000        0x0 /home/anagha/Downloads/msp430-47/bin/../lib/gcc/msp430/4.7.0/mcpu-430x/mmpy-16/msr20/mc20/libgcc.a(_divmod16.o)
 .data          0x00000000        0x0 /home/anagha/Downloads/msp430-47/bin/../lib/gcc/msp430/4.7.0/mcpu-430x/mmpy-16/msr20/mc20/libgcc.a(_divmod16.o)
 .bss           0x00000000        0x0 /home/anagha/Downloads/msp430-47/bin/../lib/gcc/msp430/4.7.0/mcpu-430x/mmpy-16/msr20/mc20/libgcc.a(_divmod16.o)
 .text          0x00000000        0x0 /home/anagha/Downloads/msp430-47/bin/../lib/gcc/msp430/4.7.0/mcpu-430x/mmpy-16/msr20/mc20/libgcc.a(_udivmod32.o)
 .data          0x00000000        0x0 /home/anagha/Downloads/msp430-47/bin/../lib/gcc/msp430/4.7.0/mcpu-430x/mmpy-16/msr20/mc20/libgcc.a(_udivmod32.o)
 .bss           0x00000000        0x0 /home/anagha/Downloads/msp430-47/bin/../lib/gcc/msp430/4.7.0/mcpu-430x/mmpy-16/msr20/mc20/libgcc.a(_udivmod32.o)
 .text          0x00000000        0x0 /home/anagha/Downloads/msp430-47/bin/../lib/gcc/msp430/4.7.0/mcpu-430x/mmpy-16/msr20/mc20/libgcc.a(_divmod32.o)
 .data          0x00000000        0x0 /home/anagha/Downloads/msp430-47/bin/../lib/gcc/msp430/4.7.0/mcpu-430x/mmpy-16/msr20/mc20/libgcc.a(_divmod32.o)
 .bss           0x00000000        0x0 /home/anagha/Downloads/msp430-47/bin/../lib/gcc/msp430/4.7.0/mcpu-430x/mmpy-16/msr20/mc20/libgcc.a(_divmod32.o)
 .text          0x00000000        0x0 /home/anagha/Downloads/msp430-47/bin/../lib/gcc/msp430/4.7.0/../../../../msp430/lib/mcpu-430x/mmpy-16/msr20/mc20/libc.a(printf.o)
 .data          0x00000000        0x0 /home/anagha/Downloads/msp430-47/bin/../lib/gcc/msp430/4.7.0/../../../../msp430/lib/mcpu-430x/mmpy-16/msr20/mc20/libc.a(printf.o)
 .bss           0x00000000        0x0 /home/anagha/Downloads/msp430-47/bin/../lib/gcc/msp430/4.7.0/../../../../msp430/lib/mcpu-430x/mmpy-16/msr20/mc20/libc.a(printf.o)
 .text.vprintf  0x00000000        0xe /home/anagha/Downloads/msp430-47/bin/../lib/gcc/msp430/4.7.0/../../../../msp430/lib/mcpu-430x/mmpy-16/msr20/mc20/libc.a(printf.o)
 .text          0x00000000        0x0 /home/anagha/Downloads/msp430-47/bin/../lib/gcc/msp430/4.7.0/../../../../msp430/lib/mcpu-430x/mmpy-16/msr20/mc20/libc.a(sprintf.o)
 .data          0x00000000        0x0 /home/anagha/Downloads/msp430-47/bin/../lib/gcc/msp430/4.7.0/../../../../msp430/lib/mcpu-430x/mmpy-16/msr20/mc20/libc.a(sprintf.o)
 .bss           0x00000000        0x0 /home/anagha/Downloads/msp430-47/bin/../lib/gcc/msp430/4.7.0/../../../../msp430/lib/mcpu-430x/mmpy-16/msr20/mc20/libc.a(sprintf.o)
 .text.sprintf  0x00000000       0x1a /home/anagha/Downloads/msp430-47/bin/../lib/gcc/msp430/4.7.0/../../../../msp430/lib/mcpu-430x/mmpy-16/msr20/mc20/libc.a(sprintf.o)
 .text.vsprintf
                0x00000000       0x16 /home/anagha/Downloads/msp430-47/bin/../lib/gcc/msp430/4.7.0/../../../../msp430/lib/mcpu-430x/mmpy-16/msr20/mc20/libc.a(sprintf.o)
 .text.vsnprintf
                0x00000000       0x12 /home/anagha/Downloads/msp430-47/bin/../lib/gcc/msp430/4.7.0/../../../../msp430/lib/mcpu-430x/mmpy-16/msr20/mc20/libc.a(sprintf.o)
 .text          0x00000000        0x0 /home/anagha/Downloads/msp430-47/bin/../lib/gcc/msp430/4.7.0/../../../../msp430/lib/mcpu-430x/mmpy-16/msr20/mc20/libc.a(vuprintf.o)
 .data          0x00000000        0x0 /home/anagha/Downloads/msp430-47/bin/../lib/gcc/msp430/4.7.0/../../../../msp430/lib/mcpu-430x/mmpy-16/msr20/mc20/libc.a(vuprintf.o)
 .bss           0x00000000        0x0 /home/anagha/Downloads/msp430-47/bin/../lib/gcc/msp430/4.7.0/../../../../msp430/lib/mcpu-430x/mmpy-16/msr20/mc20/libc.a(vuprintf.o)
 .text          0x00000000        0x0 /home/anagha/Downloads/msp430-47/bin/../lib/gcc/msp430/4.7.0/../../../../msp430/lib/mcpu-430x/mmpy-16/msr20/mc20/libc.a(puts.o)
 .data          0x00000000        0x0 /home/anagha/Downloads/msp430-47/bin/../lib/gcc/msp430/4.7.0/../../../../msp430/lib/mcpu-430x/mmpy-16/msr20/mc20/libc.a(puts.o)
 .bss           0x00000000        0x0 /home/anagha/Downloads/msp430-47/bin/../lib/gcc/msp430/4.7.0/../../../../msp430/lib/mcpu-430x/mmpy-16/msr20/mc20/libc.a(puts.o)
 .text          0x00000000        0x0 /home/anagha/Downloads/msp430-47/bin/../lib/gcc/msp430/4.7.0/../../../../msp430/lib/mcpu-430x/mmpy-16/msr20/mc20/libc.a(rand.o)
 .data          0x00000000        0x0 /home/anagha/Downloads/msp430-47/bin/../lib/gcc/msp430/4.7.0/../../../../msp430/lib/mcpu-430x/mmpy-16/msr20/mc20/libc.a(rand.o)
 .bss           0x00000000        0x0 /home/anagha/Downloads/msp430-47/bin/../lib/gcc/msp430/4.7.0/../../../../msp430/lib/mcpu-430x/mmpy-16/msr20/mc20/libc.a(rand.o)
 .text.rand_r   0x00000000       0x24 /home/anagha/Downloads/msp430-47/bin/../lib/gcc/msp430/4.7.0/../../../../msp430/lib/mcpu-430x/mmpy-16/msr20/mc20/libc.a(rand.o)
 .text          0x00000000        0x0 /home/anagha/Downloads/msp430-47/bin/../lib/gcc/msp430/4.7.0/../../../../msp430/lib/mcpu-430x/mmpy-16/msr20/mc20/libc.a(strncmp.o)
 .data          0x00000000        0x0 /home/anagha/Downloads/msp430-47/bin/../lib/gcc/msp430/4.7.0/../../../../msp430/lib/mcpu-430x/mmpy-16/msr20/mc20/libc.a(strncmp.o)
 .bss           0x00000000        0x0 /home/anagha/Downloads/msp430-47/bin/../lib/gcc/msp430/4.7.0/../../../../msp430/lib/mcpu-430x/mmpy-16/msr20/mc20/libc.a(strncmp.o)
 .text          0x00000000        0x0 /home/anagha/Downloads/msp430-47/bin/../lib/gcc/msp430/4.7.0/../../../../msp430/lib/mcpu-430x/mmpy-16/msr20/mc20/libc.a(memcmp.o)
 .data          0x00000000        0x0 /home/anagha/Downloads/msp430-47/bin/../lib/gcc/msp430/4.7.0/../../../../msp430/lib/mcpu-430x/mmpy-16/msr20/mc20/libc.a(memcmp.o)
 .bss           0x00000000        0x0 /home/anagha/Downloads/msp430-47/bin/../lib/gcc/msp430/4.7.0/../../../../msp430/lib/mcpu-430x/mmpy-16/msr20/mc20/libc.a(memcmp.o)
 .text          0x00000000        0x0 /home/anagha/Downloads/msp430-47/bin/../lib/gcc/msp430/4.7.0/../../../../msp430/lib/mcpu-430x/mmpy-16/msr20/mc20/libc.a(strcpy.o)
 .data          0x00000000        0x0 /home/anagha/Downloads/msp430-47/bin/../lib/gcc/msp430/4.7.0/../../../../msp430/lib/mcpu-430x/mmpy-16/msr20/mc20/libc.a(strcpy.o)
 .bss           0x00000000        0x0 /home/anagha/Downloads/msp430-47/bin/../lib/gcc/msp430/4.7.0/../../../../msp430/lib/mcpu-430x/mmpy-16/msr20/mc20/libc.a(strcpy.o)
 .text          0x00000000        0x0 /home/anagha/Downloads/msp430-47/bin/../lib/gcc/msp430/4.7.0/../../../../msp430/lib/mcpu-430x/mmpy-16/msr20/mc20/libc.a(strncpy.o)
 .data          0x00000000        0x0 /home/anagha/Downloads/msp430-47/bin/../lib/gcc/msp430/4.7.0/../../../../msp430/lib/mcpu-430x/mmpy-16/msr20/mc20/libc.a(strncpy.o)
 .bss           0x00000000        0x0 /home/anagha/Downloads/msp430-47/bin/../lib/gcc/msp430/4.7.0/../../../../msp430/lib/mcpu-430x/mmpy-16/msr20/mc20/libc.a(strncpy.o)
 .text          0x00000000        0x0 /home/anagha/Downloads/msp430-47/bin/../lib/gcc/msp430/4.7.0/../../../../msp430/lib/mcpu-430x/mmpy-16/msr20/mc20/libc.a(memcpy.o)
 .data          0x00000000        0x0 /home/anagha/Downloads/msp430-47/bin/../lib/gcc/msp430/4.7.0/../../../../msp430/lib/mcpu-430x/mmpy-16/msr20/mc20/libc.a(memcpy.o)
 .bss           0x00000000        0x0 /home/anagha/Downloads/msp430-47/bin/../lib/gcc/msp430/4.7.0/../../../../msp430/lib/mcpu-430x/mmpy-16/msr20/mc20/libc.a(memcpy.o)
 .text          0x00000000        0x0 /home/anagha/Downloads/msp430-47/bin/../lib/gcc/msp430/4.7.0/../../../../msp430/lib/mcpu-430x/mmpy-16/msr20/mc20/libc.a(memmove.o)
 .data          0x00000000        0x0 /home/anagha/Downloads/msp430-47/bin/../lib/gcc/msp430/4.7.0/../../../../msp430/lib/mcpu-430x/mmpy-16/msr20/mc20/libc.a(memmove.o)
 .bss           0x00000000        0x0 /home/anagha/Downloads/msp430-47/bin/../lib/gcc/msp430/4.7.0/../../../../msp430/lib/mcpu-430x/mmpy-16/msr20/mc20/libc.a(memmove.o)
 .text          0x00000000        0x0 /home/anagha/Downloads/msp430-47/bin/../lib/gcc/msp430/4.7.0/../../../../msp430/lib/mcpu-430x/mmpy-16/msr20/mc20/libc.a(memset.o)
 .data          0x00000000        0x0 /home/anagha/Downloads/msp430-47/bin/../lib/gcc/msp430/4.7.0/../../../../msp430/lib/mcpu-430x/mmpy-16/msr20/mc20/libc.a(memset.o)
 .bss           0x00000000        0x0 /home/anagha/Downloads/msp430-47/bin/../lib/gcc/msp430/4.7.0/../../../../msp430/lib/mcpu-430x/mmpy-16/msr20/mc20/libc.a(memset.o)
 .text          0x00000000        0x0 /home/anagha/Downloads/msp430-47/bin/../lib/gcc/msp430/4.7.0/mcpu-430x/mmpy-16/msr20/mc20/libgcc.a(_mulsi3.o)
 .data          0x00000000        0x0 /home/anagha/Downloads/msp430-47/bin/../lib/gcc/msp430/4.7.0/mcpu-430x/mmpy-16/msr20/mc20/libgcc.a(_mulsi3.o)
 .bss           0x00000000        0x0 /home/anagha/Downloads/msp430-47/bin/../lib/gcc/msp430/4.7.0/mcpu-430x/mmpy-16/msr20/mc20/libgcc.a(_mulsi3.o)
 .text          0x00000000        0x0 /home/anagha/Downloads/msp430-47/bin/../lib/gcc/msp430/4.7.0/mcpu-430x/mmpy-16/msr20/mc20/libgcc.a(_udivmod64.o)
 .data          0x00000000        0x0 /home/anagha/Downloads/msp430-47/bin/../lib/gcc/msp430/4.7.0/mcpu-430x/mmpy-16/msr20/mc20/libgcc.a(_udivmod64.o)
 .bss           0x00000000        0x0 /home/anagha/Downloads/msp430-47/bin/../lib/gcc/msp430/4.7.0/mcpu-430x/mmpy-16/msr20/mc20/libgcc.a(_udivmod64.o)
 .text          0x00000000        0x0 /home/anagha/Downloads/msp430-47/bin/../lib/gcc/msp430/4.7.0/mcpu-430x/mmpy-16/msr20/mc20/libcrt0.a(_reset_vector__.o)
 .data          0x00000000        0x0 /home/anagha/Downloads/msp430-47/bin/../lib/gcc/msp430/4.7.0/mcpu-430x/mmpy-16/msr20/mc20/libcrt0.a(_reset_vector__.o)
 .bss           0x00000000        0x0 /home/anagha/Downloads/msp430-47/bin/../lib/gcc/msp430/4.7.0/mcpu-430x/mmpy-16/msr20/mc20/libcrt0.a(_reset_vector__.o)
 .text          0x00000000        0x0 /home/anagha/Downloads/msp430-47/bin/../lib/gcc/msp430/4.7.0/mcpu-430x/mmpy-16/msr20/mc20/libcrt0.a(__watchdog_support.o)
 .data          0x00000000        0x0 /home/anagha/Downloads/msp430-47/bin/../lib/gcc/msp430/4.7.0/mcpu-430x/mmpy-16/msr20/mc20/libcrt0.a(__watchdog_support.o)
 .bss           0x00000000        0x0 /home/anagha/Downloads/msp430-47/bin/../lib/gcc/msp430/4.7.0/mcpu-430x/mmpy-16/msr20/mc20/libcrt0.a(__watchdog_support.o)
 .text          0x00000000        0x0 /home/anagha/Downloads/msp430-47/bin/../lib/gcc/msp430/4.7.0/mcpu-430x/mmpy-16/msr20/mc20/libcrt0.a(__init_stack.o)
 .data          0x00000000        0x0 /home/anagha/Downloads/msp430-47/bin/../lib/gcc/msp430/4.7.0/mcpu-430x/mmpy-16/msr20/mc20/libcrt0.a(__init_stack.o)
 .bss           0x00000000        0x0 /home/anagha/Downloads/msp430-47/bin/../lib/gcc/msp430/4.7.0/mcpu-430x/mmpy-16/msr20/mc20/libcrt0.a(__init_stack.o)
 .text          0x00000000        0x0 /home/anagha/Downloads/msp430-47/bin/../lib/gcc/msp430/4.7.0/mcpu-430x/mmpy-16/msr20/mc20/libcrt0.a(__low_level_init.o)
 .data          0x00000000        0x0 /home/anagha/Downloads/msp430-47/bin/../lib/gcc/msp430/4.7.0/mcpu-430x/mmpy-16/msr20/mc20/libcrt0.a(__low_level_init.o)
 .bss           0x00000000        0x0 /home/anagha/Downloads/msp430-47/bin/../lib/gcc/msp430/4.7.0/mcpu-430x/mmpy-16/msr20/mc20/libcrt0.a(__low_level_init.o)
 .text          0x00000000        0x0 /home/anagha/Downloads/msp430-47/bin/../lib/gcc/msp430/4.7.0/mcpu-430x/mmpy-16/msr20/mc20/libcrt0.a(_copy_data.o)
 .data          0x00000000        0x0 /home/anagha/Downloads/msp430-47/bin/../lib/gcc/msp430/4.7.0/mcpu-430x/mmpy-16/msr20/mc20/libcrt0.a(_copy_data.o)
 .bss           0x00000000        0x0 /home/anagha/Downloads/msp430-47/bin/../lib/gcc/msp430/4.7.0/mcpu-430x/mmpy-16/msr20/mc20/libcrt0.a(_copy_data.o)
 .text          0x00000000        0x0 /home/anagha/Downloads/msp430-47/bin/../lib/gcc/msp430/4.7.0/mcpu-430x/mmpy-16/msr20/mc20/libcrt0.a(_clear_bss.o)
 .data          0x00000000        0x0 /home/anagha/Downloads/msp430-47/bin/../lib/gcc/msp430/4.7.0/mcpu-430x/mmpy-16/msr20/mc20/libcrt0.a(_clear_bss.o)
 .bss           0x00000000        0x0 /home/anagha/Downloads/msp430-47/bin/../lib/gcc/msp430/4.7.0/mcpu-430x/mmpy-16/msr20/mc20/libcrt0.a(_clear_bss.o)
 .text          0x00000000        0x0 /home/anagha/Downloads/msp430-47/bin/../lib/gcc/msp430/4.7.0/mcpu-430x/mmpy-16/msr20/mc20/libcrt0.a(__stop_progExec__.o)
 .data          0x00000000        0x0 /home/anagha/Downloads/msp430-47/bin/../lib/gcc/msp430/4.7.0/mcpu-430x/mmpy-16/msr20/mc20/libcrt0.a(__stop_progExec__.o)
 .bss           0x00000000        0x0 /home/anagha/Downloads/msp430-47/bin/../lib/gcc/msp430/4.7.0/mcpu-430x/mmpy-16/msr20/mc20/libcrt0.a(__stop_progExec__.o)
 .text          0x00000000        0x0 /home/anagha/Downloads/msp430-47/bin/../lib/gcc/msp430/4.7.0/mcpu-430x/mmpy-16/msr20/mc20/libcrt0.a(_endless_loop__.o)
 .data          0x00000000        0x0 /home/anagha/Downloads/msp430-47/bin/../lib/gcc/msp430/4.7.0/mcpu-430x/mmpy-16/msr20/mc20/libcrt0.a(_endless_loop__.o)
 .bss           0x00000000        0x0 /home/anagha/Downloads/msp430-47/bin/../lib/gcc/msp430/4.7.0/mcpu-430x/mmpy-16/msr20/mc20/libcrt0.a(_endless_loop__.o)
 .text          0x00000000        0x0 /home/anagha/Downloads/msp430-47/bin/../lib/gcc/msp430/4.7.0/mcpu-430x/mmpy-16/msr20/mc20/libcrt0.a(_unexpected_.o)
 .data          0x00000000        0x0 /home/anagha/Downloads/msp430-47/bin/../lib/gcc/msp430/4.7.0/mcpu-430x/mmpy-16/msr20/mc20/libcrt0.a(_unexpected_.o)
 .bss           0x00000000        0x0 /home/anagha/Downloads/msp430-47/bin/../lib/gcc/msp430/4.7.0/mcpu-430x/mmpy-16/msr20/mc20/libcrt0.a(_unexpected_.o)

Memory Configuration

Name             Origin             Length             Attributes
sfr              0x00000000         0x00000010
peripheral_8bit  0x00000010         0x000000f0
peripheral_16bit 0x00000100         0x00000100
bsl              0x00001000         0x00000800
infomem          0x00001800         0x00000200
infod            0x00001800         0x00000080
infoc            0x00001880         0x00000080
infob            0x00001900         0x00000080
infoa            0x00001980         0x00000080
ram              0x00001c00         0x00004000         xw
rom              0x00005c00         0x0000a380         xr
vectors          0x0000ff80         0x00000080
far_rom          0x00010000         0x00035c00
ram2             0x00000000         0x00000000         xw
ram_mirror       0x00000000         0x00000000         xw
usbram           0x00000000         0x00000000         xw
*default*        0x00000000         0xffffffff

Linker script and memory map

LOAD /home/anagha/Downloads/msp430-47/bin/../lib/gcc/msp430/4.7.0/mcpu-430x/mmpy-16/msr20/mc20/crt0ivtbl64.o
LOAD border-router.co
LOAD obj_wismote/slip-bridge.o
LOAD obj_wismote/httpd-simple.o
LOAD obj_wismote/contiki-wismote-main.o
LOAD contiki-wismote.a
LOAD /home/anagha/Downloads/msp430-47/bin/../lib/gcc/msp430/4.7.0/mcpu-430x/mmpy-16/msr20/mc20/libgcc.a
LOAD /home/anagha/Downloads/msp430-47/bin/../lib/gcc/msp430/4.7.0/../../../../msp430/lib/mcpu-430x/mmpy-16/msr20/mc20/libc.a
LOAD /home/anagha/Downloads/msp430-47/bin/../lib/gcc/msp430/4.7.0/mcpu-430x/mmpy-16/msr20/mc20/libgcc.a
LOAD /home/anagha/Downloads/msp430-47/bin/../lib/gcc/msp430/4.7.0/mcpu-430x/mmpy-16/msr20/mc20/libcrt0.a
                0x00000080                PROVIDE (__info_segment_size, 0x80)
                0x00001800                PROVIDE (__infod, 0x1800)
                0x00001880                PROVIDE (__infoc, 0x1880)
                0x00001900                PROVIDE (__infob, 0x1900)
                0x00001980                PROVIDE (__infoa, 0x1980)
                0x00000700                __ADC12CTL0_L = 0x700
                0x00000701                __ADC12CTL0_H = 0x701
                0x00000700                __ADC12CTL0 = 0x700
                0x00000702                __ADC12CTL1_L = 0x702
                0x00000703                __ADC12CTL1_H = 0x703
                0x00000702                __ADC12CTL1 = 0x702
                0x00000704                __ADC12CTL2_L = 0x704
                0x00000705                __ADC12CTL2_H = 0x705
                0x00000704                __ADC12CTL2 = 0x704
                0x0000070a                __ADC12IFG_L = 0x70a
                0x0000070b                __ADC12IFG_H = 0x70b
                0x0000070a                __ADC12IFG = 0x70a
                0x0000070c                __ADC12IE_L = 0x70c
                0x0000070d                __ADC12IE_H = 0x70d
                0x0000070c                __ADC12IE = 0x70c
                0x0000070e                __ADC12IV_L = 0x70e
                0x0000070f                __ADC12IV_H = 0x70f
                0x0000070e                __ADC12IV = 0x70e
                0x00000720                __ADC12MEM0_L = 0x720
                0x00000721                __ADC12MEM0_H = 0x721
                0x00000720                __ADC12MEM0 = 0x720
                0x00000722                __ADC12MEM1_L = 0x722
                0x00000723                __ADC12MEM1_H = 0x723
                0x00000722                __ADC12MEM1 = 0x722
                0x00000724                __ADC12MEM2_L = 0x724
                0x00000725                __ADC12MEM2_H = 0x725
                0x00000724                __ADC12MEM2 = 0x724
                0x00000726                __ADC12MEM3_L = 0x726
                0x00000727                __ADC12MEM3_H = 0x727
                0x00000726                __ADC12MEM3 = 0x726
                0x00000728                __ADC12MEM4_L = 0x728
                0x00000729                __ADC12MEM4_H = 0x729
                0x00000728                __ADC12MEM4 = 0x728
                0x0000072a                __ADC12MEM5_L = 0x72a
                0x0000072b                __ADC12MEM5_H = 0x72b
                0x0000072a                __ADC12MEM5 = 0x72a
                0x0000072c                __ADC12MEM6_L = 0x72c
                0x0000072d                __ADC12MEM6_H = 0x72d
                0x0000072c                __ADC12MEM6 = 0x72c
                0x0000072e                __ADC12MEM7_L = 0x72e
                0x0000072f                __ADC12MEM7_H = 0x72f
                0x0000072e                __ADC12MEM7 = 0x72e
                0x00000730                __ADC12MEM8_L = 0x730
                0x00000731                __ADC12MEM8_H = 0x731
                0x00000730                __ADC12MEM8 = 0x730
                0x00000732                __ADC12MEM9_L = 0x732
                0x00000733                __ADC12MEM9_H = 0x733
                0x00000732                __ADC12MEM9 = 0x732
                0x00000734                __ADC12MEM10_L = 0x734
                0x00000735                __ADC12MEM10_H = 0x735
                0x00000734                __ADC12MEM10 = 0x734
                0x00000736                __ADC12MEM11_L = 0x736
                0x00000737                __ADC12MEM11_H = 0x737
                0x00000736                __ADC12MEM11 = 0x736
                0x00000738                __ADC12MEM12_L = 0x738
                0x00000739                __ADC12MEM12_H = 0x739
                0x00000738                __ADC12MEM12 = 0x738
                0x0000073a                __ADC12MEM13_L = 0x73a
                0x0000073b                __ADC12MEM13_H = 0x73b
                0x0000073a                __ADC12MEM13 = 0x73a
                0x0000073c                __ADC12MEM14_L = 0x73c
                0x0000073d                __ADC12MEM14_H = 0x73d
                0x0000073c                __ADC12MEM14 = 0x73c
                0x0000073e                __ADC12MEM15_L = 0x73e
                0x0000073f                __ADC12MEM15_H = 0x73f
                0x0000073e                __ADC12MEM15 = 0x73e
                0x00000710                __ADC12MCTL0 = 0x710
                0x00000711                __ADC12MCTL1 = 0x711
                0x00000712                __ADC12MCTL2 = 0x712
                0x00000713                __ADC12MCTL3 = 0x713
                0x00000714                __ADC12MCTL4 = 0x714
                0x00000715                __ADC12MCTL5 = 0x715
                0x00000716                __ADC12MCTL6 = 0x716
                0x00000717                __ADC12MCTL7 = 0x717
                0x00000718                __ADC12MCTL8 = 0x718
                0x00000719                __ADC12MCTL9 = 0x719
                0x0000071a                __ADC12MCTL10 = 0x71a
                0x0000071b                __ADC12MCTL11 = 0x71b
                0x0000071c                __ADC12MCTL12 = 0x71c
                0x0000071d                __ADC12MCTL13 = 0x71d
                0x0000071e                __ADC12MCTL14 = 0x71e
                0x0000071f                __ADC12MCTL15 = 0x71f
                0x00000150                __CRCDI_L = 0x150
                0x00000151                __CRCDI_H = 0x151
                0x00000150                __CRCDI = 0x150
                0x00000154                __CRCINIRES_L = 0x154
                0x00000155                __CRCINIRES_H = 0x155
                0x00000154                __CRCINIRES = 0x154
                0x00000500                __DMACTL0_L = 0x500
                0x00000501                __DMACTL0_H = 0x501
                0x00000500                __DMACTL0 = 0x500
                0x00000502                __DMACTL1_L = 0x502
                0x00000503                __DMACTL1_H = 0x503
                0x00000502                __DMACTL1 = 0x502
                0x00000504                __DMACTL2_L = 0x504
                0x00000505                __DMACTL2_H = 0x505
                0x00000504                __DMACTL2 = 0x504
                0x00000506                __DMACTL3_L = 0x506
                0x00000507                __DMACTL3_H = 0x507
                0x00000506                __DMACTL3 = 0x506
                0x00000508                __DMACTL4_L = 0x508
                0x00000509                __DMACTL4_H = 0x509
                0x00000508                __DMACTL4 = 0x508
                0x0000050e                __DMAIV_L = 0x50e
                0x0000050f                __DMAIV_H = 0x50f
                0x0000050e                __DMAIV = 0x50e
                0x00000510                __DMA0CTL_L = 0x510
                0x00000511                __DMA0CTL_H = 0x511
                0x00000510                __DMA0CTL = 0x510
                0x00000512                __DMA0SA = 0x512
                0x00000516                __DMA0DA = 0x516
                0x0000051a                __DMA0SZ = 0x51a
                0x00000520                __DMA1CTL_L = 0x520
                0x00000521                __DMA1CTL_H = 0x521
                0x00000520                __DMA1CTL = 0x520
                0x00000522                __DMA1SA = 0x522
                0x00000526                __DMA1DA = 0x526
                0x0000052a                __DMA1SZ = 0x52a
                0x00000530                __DMA2CTL_L = 0x530
                0x00000531                __DMA2CTL_H = 0x531
                0x00000530                __DMA2CTL = 0x530
                0x00000532                __DMA2SA = 0x532
                0x00000536                __DMA2DA = 0x536
                0x0000053a                __DMA2SZ = 0x53a
                0x00000140                __FCTL1_L = 0x140
                0x00000141                __FCTL1_H = 0x141
                0x00000140                __FCTL1 = 0x140
                0x00000144                __FCTL3_L = 0x144
                0x00000145                __FCTL3_H = 0x145
                0x00000144                __FCTL3 = 0x144
                0x00000146                __FCTL4_L = 0x146
                0x00000147                __FCTL4_H = 0x147
                0x00000146                __FCTL4 = 0x146
                0x000004c0                __MPY_L = 0x4c0
                0x000004c1                __MPY_H = 0x4c1
                0x000004c0                __MPY = 0x4c0
                0x000004c2                __MPYS_L = 0x4c2
                0x000004c3                __MPYS_H = 0x4c3
                0x000004c2                __MPYS = 0x4c2
                0x000004c4                __MAC_L = 0x4c4
                0x000004c5                __MAC_H = 0x4c5
                0x000004c4                __MAC = 0x4c4
                0x000004c6                __MACS_L = 0x4c6
                0x000004c7                __MACS_H = 0x4c7
                0x000004c6                __MACS = 0x4c6
                0x000004c8                __OP2_L = 0x4c8
                0x000004c9                __OP2_H = 0x4c9
                0x000004c8                __OP2 = 0x4c8
                0x000004ca                __RESLO_L = 0x4ca
                0x000004cb                __RESLO_H = 0x4cb
                0x000004ca                __RESLO = 0x4ca
                0x000004cc                __RESHI_L = 0x4cc
                0x000004cd                __RESHI_H = 0x4cd
                0x000004cc                __RESHI = 0x4cc
                0x000004ce                __SUMEXT_L = 0x4ce
                0x000004cf                __SUMEXT_H = 0x4cf
                0x000004ce                __SUMEXT = 0x4ce
                0x000004d0                __MPY32L_L = 0x4d0
                0x000004d1                __MPY32L_H = 0x4d1
                0x000004d0                __MPY32L = 0x4d0
                0x000004d2                __MPY32H_L = 0x4d2
                0x000004d3                __MPY32H_H = 0x4d3
                0x000004d2                __MPY32H = 0x4d2
                0x000004d4                __MPYS32L_L = 0x4d4
                0x000004d5                __MPYS32L_H = 0x4d5
                0x000004d4                __MPYS32L = 0x4d4
                0x000004d6                __MPYS32H_L = 0x4d6
                0x000004d7                __MPYS32H_H = 0x4d7
                0x000004d6                __MPYS32H = 0x4d6
                0x000004d8                __MAC32L_L = 0x4d8
                0x000004d9                __MAC32L_H = 0x4d9
                0x000004d8                __MAC32L = 0x4d8
                0x000004da                __MAC32H_L = 0x4da
                0x000004db                __MAC32H_H = 0x4db
                0x000004da                __MAC32H = 0x4da
                0x000004dc                __MACS32L_L = 0x4dc
                0x000004dd                __MACS32L_H = 0x4dd
                0x000004dc                __MACS32L = 0x4dc
                0x000004de                __MACS32H_L = 0x4de
                0x000004df                __MACS32H_H = 0x4df
                0x000004de                __MACS32H = 0x4de
                0x000004e0                __OP2L_L = 0x4e0
                0x000004e1                __OP2L_H = 0x4e1
                0x000004e0                __OP2L = 0x4e0
                0x000004e2                __OP2H_L = 0x4e2
                0x000004e3                __OP2H_H = 0x4e3
                0x000004e2                __OP2H = 0x4e2
                0x000004e4                __RES0_L = 0x4e4
                0x000004e5                __RES0_H = 0x4e5
                0x000004e4                __RES0 = 0x4e4
                0x000004e6                __RES1_L = 0x4e6
                0x000004e7                __RES1_H = 0x4e7
                0x000004e6                __RES1 = 0x4e6
                0x000004e8                __RES2_L = 0x4e8
                0x000004e9                __RES2_H = 0x4e9
                0x000004e8                __RES2 = 0x4e8
                0x000004ea                __RES3_L = 0x4ea
                0x000004eb                __RES3_H = 0x4eb
                0x000004ea                __RES3 = 0x4ea
                0x000004ec                __MPY32CTL0_L = 0x4ec
                0x000004ed                __MPY32CTL0_H = 0x4ed
                0x000004ec                __MPY32CTL0 = 0x4ec
                0x00000200                __PAIN_L = 0x200
                0x00000201                __PAIN_H = 0x201
                0x00000200                __PAIN = 0x200
                0x00000202                __PAOUT_L = 0x202
                0x00000203                __PAOUT_H = 0x203
                0x00000202                __PAOUT = 0x202
                0x00000204                __PADIR_L = 0x204
                0x00000205                __PADIR_H = 0x205
                0x00000204                __PADIR = 0x204
                0x00000206                __PAREN_L = 0x206
                0x00000207                __PAREN_H = 0x207
                0x00000206                __PAREN = 0x206
                0x00000208                __PADS_L = 0x208
                0x00000209                __PADS_H = 0x209
                0x00000208                __PADS = 0x208
                0x0000020a                __PASEL_L = 0x20a
                0x0000020b                __PASEL_H = 0x20b
                0x0000020a                __PASEL = 0x20a
                0x00000218                __PAIES_L = 0x218
                0x00000219                __PAIES_H = 0x219
                0x00000218                __PAIES = 0x218
                0x0000021a                __PAIE_L = 0x21a
                0x0000021b                __PAIE_H = 0x21b
                0x0000021a                __PAIE = 0x21a
                0x0000021c                __PAIFG_L = 0x21c
                0x0000021d                __PAIFG_H = 0x21d
                0x0000021c                __PAIFG = 0x21c
                0x0000020e                __P1IV = 0x20e
                0x0000021e                __P2IV = 0x21e
                0x00000220                __PBIN_L = 0x220
                0x00000221                __PBIN_H = 0x221
                0x00000220                __PBIN = 0x220
                0x00000222                __PBOUT_L = 0x222
                0x00000223                __PBOUT_H = 0x223
                0x00000222                __PBOUT = 0x222
                0x00000224                __PBDIR_L = 0x224
                0x00000225                __PBDIR_H = 0x225
                0x00000224                __PBDIR = 0x224
                0x00000226                __PBREN_L = 0x226
                0x00000227                __PBREN_H = 0x227
                0x00000226                __PBREN = 0x226
                0x00000228                __PBDS_L = 0x228
                0x00000229                __PBDS_H = 0x229
                0x00000228                __PBDS = 0x228
                0x0000022a                __PBSEL_L = 0x22a
                0x0000022b                __PBSEL_H = 0x22b
                0x0000022a                __PBSEL = 0x22a
                0x00000240                __PCIN_L = 0x240
                0x00000241                __PCIN_H = 0x241
                0x00000240                __PCIN = 0x240
                0x00000242                __PCOUT_L = 0x242
                0x00000243                __PCOUT_H = 0x243
                0x00000242                __PCOUT = 0x242
                0x00000244                __PCDIR_L = 0x244
                0x00000245                __PCDIR_H = 0x245
                0x00000244                __PCDIR = 0x244
                0x00000246                __PCREN_L = 0x246
                0x00000247                __PCREN_H = 0x247
                0x00000246                __PCREN = 0x246
                0x00000248                __PCDS_L = 0x248
                0x00000249                __PCDS_H = 0x249
                0x00000248                __PCDS = 0x248
                0x0000024a                __PCSEL_L = 0x24a
                0x0000024b                __PCSEL_H = 0x24b
                0x0000024a                __PCSEL = 0x24a
                0x00000260                __PDIN_L = 0x260
                0x00000261                __PDIN_H = 0x261
                0x00000260                __PDIN = 0x260
                0x00000262                __PDOUT_L = 0x262
                0x00000263                __PDOUT_H = 0x263
                0x00000262                __PDOUT = 0x262
                0x00000264                __PDDIR_L = 0x264
                0x00000265                __PDDIR_H = 0x265
                0x00000264                __PDDIR = 0x264
                0x00000266                __PDREN_L = 0x266
                0x00000267                __PDREN_H = 0x267
                0x00000266                __PDREN = 0x266
                0x00000268                __PDDS_L = 0x268
                0x00000269                __PDDS_H = 0x269
                0x00000268                __PDDS = 0x268
                0x0000026a                __PDSEL_L = 0x26a
                0x0000026b                __PDSEL_H = 0x26b
                0x0000026a                __PDSEL = 0x26a
                0x00000280                __PEIN_L = 0x280
                0x00000281                __PEIN_H = 0x281
                0x00000280                __PEIN = 0x280
                0x00000282                __PEOUT_L = 0x282
                0x00000283                __PEOUT_H = 0x283
                0x00000282                __PEOUT = 0x282
                0x00000284                __PEDIR_L = 0x284
                0x00000285                __PEDIR_H = 0x285
                0x00000284                __PEDIR = 0x284
                0x00000286                __PEREN_L = 0x286
                0x00000287                __PEREN_H = 0x287
                0x00000286                __PEREN = 0x286
                0x00000288                __PEDS_L = 0x288
                0x00000289                __PEDS_H = 0x289
                0x00000288                __PEDS = 0x288
                0x0000028a                __PESEL_L = 0x28a
                0x0000028b                __PESEL_H = 0x28b
                0x0000028a                __PESEL = 0x28a
                0x000002a0                __PFIN_L = 0x2a0
                0x000002a1                __PFIN_H = 0x2a1
                0x000002a0                __PFIN = 0x2a0
                0x000002a2                __PFOUT_L = 0x2a2
                0x000002a3                __PFOUT_H = 0x2a3
                0x000002a2                __PFOUT = 0x2a2
                0x000002a4                __PFDIR_L = 0x2a4
                0x000002a5                __PFDIR_H = 0x2a5
                0x000002a4                __PFDIR = 0x2a4
                0x000002a6                __PFREN_L = 0x2a6
                0x000002a7                __PFREN_H = 0x2a7
                0x000002a6                __PFREN = 0x2a6
                0x000002a8                __PFDS_L = 0x2a8
                0x000002a9                __PFDS_H = 0x2a9
                0x000002a8                __PFDS = 0x2a8
                0x000002aa                __PFSEL_L = 0x2aa
                0x000002ab                __PFSEL_H = 0x2ab
                0x000002aa                __PFSEL = 0x2aa
                0x00000320                __PJIN_L = 0x320
                0x00000321                __PJIN_H = 0x321
                0x00000320                __PJIN = 0x320
                0x00000322                __PJOUT_L = 0x322
                0x00000323                __PJOUT_H = 0x323
                0x00000322                __PJOUT = 0x322
                0x00000324                __PJDIR_L = 0x324
                0x00000325                __PJDIR_H = 0x325
                0x00000324                __PJDIR = 0x324
                0x00000326                __PJREN_L = 0x326
                0x00000327                __PJREN_H = 0x327
                0x00000326                __PJREN = 0x326
                0x00000328                __PJDS_L = 0x328
                0x00000329                __PJDS_H = 0x329
                0x00000328                __PJDS = 0x328
                0x00000120                __PMMCTL0_L = 0x120
                0x00000121                __PMMCTL0_H = 0x121
                0x00000120                __PMMCTL0 = 0x120
                0x00000122                __PMMCTL1_L = 0x122
                0x00000123                __PMMCTL1_H = 0x123
                0x00000122                __PMMCTL1 = 0x122
                0x00000124                __SVSMHCTL_L = 0x124
                0x00000125                __SVSMHCTL_H = 0x125
                0x00000124                __SVSMHCTL = 0x124
                0x00000126                __SVSMLCTL_L = 0x126
                0x00000127                __SVSMLCTL_H = 0x127
                0x00000126                __SVSMLCTL = 0x126
                0x00000128                __SVSMIO_L = 0x128
                0x00000129                __SVSMIO_H = 0x129
                0x00000128                __SVSMIO = 0x128
                0x0000012c                __PMMIFG_L = 0x12c
                0x0000012d                __PMMIFG_H = 0x12d
                0x0000012c                __PMMIFG = 0x12c
                0x0000012e                __PMMRIE_L = 0x12e
                0x0000012f                __PMMRIE_H = 0x12f
                0x0000012e                __PMMRIE = 0x12e
                0x00000158                __RCCTL0_L = 0x158
                0x00000159                __RCCTL0_H = 0x159
                0x00000158                __RCCTL0 = 0x158
                0x000004a0                __RTCCTL01_L = 0x4a0
                0x000004a1                __RTCCTL01_H = 0x4a1
                0x000004a0                __RTCCTL01 = 0x4a0
                0x000004a2                __RTCCTL23_L = 0x4a2
                0x000004a3                __RTCCTL23_H = 0x4a3
                0x000004a2                __RTCCTL23 = 0x4a2
                0x000004a8                __RTCPS0CTL_L = 0x4a8
                0x000004a9                __RTCPS0CTL_H = 0x4a9
                0x000004a8                __RTCPS0CTL = 0x4a8
                0x000004aa                __RTCPS1CTL_L = 0x4aa
                0x000004ab                __RTCPS1CTL_H = 0x4ab
                0x000004aa                __RTCPS1CTL = 0x4aa
                0x000004ac                __RTCPS_L = 0x4ac
                0x000004ad                __RTCPS_H = 0x4ad
                0x000004ac                __RTCPS = 0x4ac
                0x000004ae                __RTCIV = 0x4ae
                0x000004b0                __RTCTIM0_L = 0x4b0
                0x000004b1                __RTCTIM0_H = 0x4b1
                0x000004b0                __RTCTIM0 = 0x4b0
                0x000004b2                __RTCTIM1_L = 0x4b2
                0x000004b3                __RTCTIM1_H = 0x4b3
                0x000004b2                __RTCTIM1 = 0x4b2
                0x000004b4                __RTCDATE_L = 0x4b4
                0x000004b5                __RTCDATE_H = 0x4b5
                0x000004b4                __RTCDATE = 0x4b4
                0x000004b6                __RTCYEAR_L = 0x4b6
                0x000004b7                __RTCYEAR_H = 0x4b7
                0x000004b6                __RTCYEAR = 0x4b6
                0x000004b8                __RTCAMINHR_L = 0x4b8
                0x000004b9                __RTCAMINHR_H = 0x4b9
                0x000004b8                __RTCAMINHR = 0x4b8
                0x000004ba                __RTCADOWDAY_L = 0x4ba
                0x000004bb                __RTCADOWDAY_H = 0x4bb
                0x000004ba                __RTCADOWDAY = 0x4ba
                0x00000100                __SFRIE1_L = 0x100
                0x00000101                __SFRIE1_H = 0x101
                0x00000100                __SFRIE1 = 0x100
                0x00000102                __SFRIFG1_L = 0x102
                0x00000103                __SFRIFG1_H = 0x103
                0x00000102                __SFRIFG1 = 0x102
                0x00000104                __SFRRPCR_L = 0x104
                0x00000105                __SFRRPCR_H = 0x105
                0x00000104                __SFRRPCR = 0x104
                0x00000180                __SYSCTL_L = 0x180
                0x00000181                __SYSCTL_H = 0x181
                0x00000180                __SYSCTL = 0x180
                0x00000182                __SYSBSLC_L = 0x182
                0x00000183                __SYSBSLC_H = 0x183
                0x00000182                __SYSBSLC = 0x182
                0x00000186                __SYSJMBC_L = 0x186
                0x00000187                __SYSJMBC_H = 0x187
                0x00000186                __SYSJMBC = 0x186
                0x00000188                __SYSJMBI0_L = 0x188
                0x00000189                __SYSJMBI0_H = 0x189
                0x00000188                __SYSJMBI0 = 0x188
                0x0000018a                __SYSJMBI1_L = 0x18a
                0x0000018b                __SYSJMBI1_H = 0x18b
                0x0000018a                __SYSJMBI1 = 0x18a
                0x0000018c                __SYSJMBO0_L = 0x18c
                0x0000018d                __SYSJMBO0_H = 0x18d
                0x0000018c                __SYSJMBO0 = 0x18c
                0x0000018e                __SYSJMBO1_L = 0x18e
                0x0000018f                __SYSJMBO1_H = 0x18f
                0x0000018e                __SYSJMBO1 = 0x18e
                0x0000019a                __SYSUNIV_L = 0x19a
                0x0000019b                __SYSUNIV_H = 0x19b
                0x0000019a                __SYSUNIV = 0x19a
                0x0000019c                __SYSSNIV_L = 0x19c
                0x0000019d                __SYSSNIV_H = 0x19d
                0x0000019c                __SYSSNIV = 0x19c
                0x0000019e                __SYSRSTIV_L = 0x19e
                0x0000019f                __SYSRSTIV_H = 0x19f
                0x0000019e                __SYSRSTIV = 0x19e
                0x00000340                __TA0CTL = 0x340
                0x00000342                __TA0CCTL0 = 0x342
                0x00000344                __TA0CCTL1 = 0x344
                0x00000346                __TA0CCTL2 = 0x346
                0x00000348                __TA0CCTL3 = 0x348
                0x0000034a                __TA0CCTL4 = 0x34a
                0x00000350                __TA0R = 0x350
                0x00000352                __TA0CCR0 = 0x352
                0x00000354                __TA0CCR1 = 0x354
                0x00000356                __TA0CCR2 = 0x356
                0x00000358                __TA0CCR3 = 0x358
                0x0000035a                __TA0CCR4 = 0x35a
                0x0000036e                __TA0IV = 0x36e
                0x00000360                __TA0EX0 = 0x360
                0x00000380                __TA1CTL = 0x380
                0x00000382                __TA1CCTL0 = 0x382
                0x00000384                __TA1CCTL1 = 0x384
                0x00000386                __TA1CCTL2 = 0x386
                0x00000390                __TA1R = 0x390
                0x00000392                __TA1CCR0 = 0x392
                0x00000394                __TA1CCR1 = 0x394
                0x00000396                __TA1CCR2 = 0x396
                0x000003ae                __TA1IV = 0x3ae
                0x000003a0                __TA1EX0 = 0x3a0
                0x000003c0                __TB0CTL = 0x3c0
                0x000003c2                __TB0CCTL0 = 0x3c2
                0x000003c4                __TB0CCTL1 = 0x3c4
                0x000003c6                __TB0CCTL2 = 0x3c6
                0x000003c8                __TB0CCTL3 = 0x3c8
                0x000003ca                __TB0CCTL4 = 0x3ca
                0x000003cc                __TB0CCTL5 = 0x3cc
                0x000003ce                __TB0CCTL6 = 0x3ce
                0x000003d0                __TB0R = 0x3d0
                0x000003d2                __TB0CCR0 = 0x3d2
                0x000003d4                __TB0CCR1 = 0x3d4
                0x000003d6                __TB0CCR2 = 0x3d6
                0x000003d8                __TB0CCR3 = 0x3d8
                0x000003da                __TB0CCR4 = 0x3da
                0x000003dc                __TB0CCR5 = 0x3dc
                0x000003de                __TB0CCR6 = 0x3de
                0x000003e0                __TB0EX0 = 0x3e0
                0x000003ee                __TB0IV = 0x3ee
                0x00000160                __UCSCTL0_L = 0x160
                0x00000161                __UCSCTL0_H = 0x161
                0x00000160                __UCSCTL0 = 0x160
                0x00000162                __UCSCTL1_L = 0x162
                0x00000163                __UCSCTL1_H = 0x163
                0x00000162                __UCSCTL1 = 0x162
                0x00000164                __UCSCTL2_L = 0x164
                0x00000165                __UCSCTL2_H = 0x165
                0x00000164                __UCSCTL2 = 0x164
                0x00000166                __UCSCTL3_L = 0x166
                0x00000167                __UCSCTL3_H = 0x167
                0x00000166                __UCSCTL3 = 0x166
                0x00000168                __UCSCTL4_L = 0x168
                0x00000169                __UCSCTL4_H = 0x169
                0x00000168                __UCSCTL4 = 0x168
                0x0000016a                __UCSCTL5_L = 0x16a
                0x0000016b                __UCSCTL5_H = 0x16b
                0x0000016a                __UCSCTL5 = 0x16a
                0x0000016c                __UCSCTL6_L = 0x16c
                0x0000016d                __UCSCTL6_H = 0x16d
                0x0000016c                __UCSCTL6 = 0x16c
                0x0000016e                __UCSCTL7_L = 0x16e
                0x0000016f                __UCSCTL7_H = 0x16f
                0x0000016e                __UCSCTL7 = 0x16e
                0x00000170                __UCSCTL8_L = 0x170
                0x00000171                __UCSCTL8_H = 0x171
                0x00000170                __UCSCTL8 = 0x170
                0x000005c0                __UCA0CTLW0_L = 0x5c0
                0x000005c1                __UCA0CTLW0_H = 0x5c1
                0x000005c0                __UCA0CTLW0 = 0x5c0
                0x000005c6                __UCA0BRW_L = 0x5c6
                0x000005c7                __UCA0BRW_H = 0x5c7
                0x000005c6                __UCA0BRW = 0x5c6
                0x000005c8                __UCA0MCTL = 0x5c8
                0x000005ca                __UCA0STAT = 0x5ca
                0x000005cc                __UCA0RXBUF = 0x5cc
                0x000005ce                __UCA0TXBUF = 0x5ce
                0x000005d0                __UCA0ABCTL = 0x5d0
                0x000005d2                __UCA0IRCTL_L = 0x5d2
                0x000005d3                __UCA0IRCTL_H = 0x5d3
                0x000005d2                __UCA0IRCTL = 0x5d2
                0x000005dc                __UCA0ICTL_L = 0x5dc
                0x000005dd                __UCA0ICTL_H = 0x5dd
                0x000005dc                __UCA0ICTL = 0x5dc
                0x000005de                __UCA0IV = 0x5de
                0x000005e0                __UCB0CTLW0_L = 0x5e0
                0x000005e1                __UCB0CTLW0_H = 0x5e1
                0x000005e0                __UCB0CTLW0 = 0x5e0
                0x000005e6                __UCB0BRW_L = 0x5e6
                0x000005e7                __UCB0BRW_H = 0x5e7
                0x000005e6                __UCB0BRW = 0x5e6
                0x000005ea                __UCB0STAT = 0x5ea
                0x000005ec                __UCB0RXBUF = 0x5ec
                0x000005ee                __UCB0TXBUF = 0x5ee
                0x000005f0                __UCB0I2COA_L = 0x5f0
                0x000005f1                __UCB0I2COA_H = 0x5f1
                0x000005f0                __UCB0I2COA = 0x5f0
                0x000005f2                __UCB0I2CSA_L = 0x5f2
                0x000005f3                __UCB0I2CSA_H = 0x5f3
                0x000005f2                __UCB0I2CSA = 0x5f2
                0x000005fc                __UCB0ICTL_L = 0x5fc
                0x000005fd                __UCB0ICTL_H = 0x5fd
                0x000005fc                __UCB0ICTL = 0x5fc
                0x000005fe                __UCB0IV = 0x5fe
                0x00000600                __UCA1CTLW0_L = 0x600
                0x00000601                __UCA1CTLW0_H = 0x601
                0x00000600                __UCA1CTLW0 = 0x600
                0x00000606                __UCA1BRW_L = 0x606
                0x00000607                __UCA1BRW_H = 0x607
                0x00000606                __UCA1BRW = 0x606
                0x00000608                __UCA1MCTL = 0x608
                0x0000060a                __UCA1STAT = 0x60a
                0x0000060c                __UCA1RXBUF = 0x60c
                0x0000060e                __UCA1TXBUF = 0x60e
                0x00000610                __UCA1ABCTL = 0x610
                0x00000612                __UCA1IRCTL_L = 0x612
                0x00000613                __UCA1IRCTL_H = 0x613
                0x00000612                __UCA1IRCTL = 0x612
                0x0000061c                __UCA1ICTL_L = 0x61c
                0x0000061d                __UCA1ICTL_H = 0x61d
                0x0000061c                __UCA1ICTL = 0x61c
                0x0000061e                __UCA1IV = 0x61e
                0x00000620                __UCB1CTLW0_L = 0x620
                0x00000621                __UCB1CTLW0_H = 0x621
                0x00000620                __UCB1CTLW0 = 0x620
                0x00000626                __UCB1BRW_L = 0x626
                0x00000627                __UCB1BRW_H = 0x627
                0x00000626                __UCB1BRW = 0x626
                0x0000062a                __UCB1STAT = 0x62a
                0x0000062c                __UCB1RXBUF = 0x62c
                0x0000062e                __UCB1TXBUF = 0x62e
                0x00000630                __UCB1I2COA_L = 0x630
                0x00000631                __UCB1I2COA_H = 0x631
                0x00000630                __UCB1I2COA = 0x630
                0x00000632                __UCB1I2CSA_L = 0x632
                0x00000633                __UCB1I2CSA_H = 0x633
                0x00000632                __UCB1I2CSA = 0x632
                0x0000063c                __UCB1ICTL_L = 0x63c
                0x0000063d                __UCB1ICTL_H = 0x63d
                0x0000063c                __UCB1ICTL = 0x63c
                0x0000063e                __UCB1IV = 0x63e
                0x0000015c                __WDTCTL_L = 0x15c
                0x0000015d                __WDTCTL_H = 0x15d
                0x0000015c                __WDTCTL = 0x15c

.hash
 *(.hash)

.dynsym
 *(.dynsym)

.dynstr
 *(.dynstr)

.gnu.version
 *(.gnu.version)

.gnu.version_d
 *(.gnu.version_d)

.gnu.version_r
 *(.gnu.version_r)

.rel.init
 *(.rel.init)

.rela.init
 *(.rela.init)

.rel.fini
 *(.rel.fini)

.rela.fini
 *(.rela.fini)

.rel.text
 *(.rel.text .rel.text.* .rel.gnu.linkonce.t.*)

.rela.text
 *(.rela.text .rela.text.* .rela.gnu.linkonce.t.*)

.rel.rodata
 *(.rel.rodata .rel.rodata.* .rel.gnu.linkonce.r.*)

.rela.rodata
 *(.rela.rodata .rela.rodata.* .rela.gnu.linkonce.r.*)

.rel.data
 *(.rel.data .rel.data.* .rel.gnu.linkonce.d.*)

.rela.data
 *(.rela.data .rela.data.* .rela.gnu.linkonce.d.*)

.rel.bss
 *(.rel.bss .rel.bss.* .rel.gnu.linkonce.b.*)

.rela.bss
 *(.rela.bss .rela.bss.* .rela.gnu.linkonce.b.*)

.rel.ctors
 *(.rel.ctors)

.rela.ctors
 *(.rela.ctors)

.rel.dtors
 *(.rel.dtors)

.rela.dtors
 *(.rela.dtors)

.rel.got
 *(.rel.got)

.rela.got
 *(.rela.got)

.rel.plt
 *(.rel.plt)

.rela.plt
 *(.rela.plt)

.text           0x00005c00     0x8002
                0x00005c00                . = ALIGN (0x2)
 *(.init .init.*)
 *(.init0)
 .init0         0x00005c00        0x0 /home/anagha/Downloads/msp430-47/bin/../lib/gcc/msp430/4.7.0/mcpu-430x/mmpy-16/msr20/mc20/libcrt0.a(_reset_vector__.o)
                0x00005c00                _reset_vector__
 *(.init1)
 .init1         0x00005c00        0xc /home/anagha/Downloads/msp430-47/bin/../lib/gcc/msp430/4.7.0/mcpu-430x/mmpy-16/msr20/mc20/libcrt0.a(__watchdog_support.o)
                0x00005c00                __watchdog_support
 *(.init2)
 .init2         0x00005c0c        0x4 /home/anagha/Downloads/msp430-47/bin/../lib/gcc/msp430/4.7.0/mcpu-430x/mmpy-16/msr20/mc20/libcrt0.a(__init_stack.o)
                0x00005c0c                __init_stack
 *(.init3)
 .init3         0x00005c10        0x0 /home/anagha/Downloads/msp430-47/bin/../lib/gcc/msp430/4.7.0/mcpu-430x/mmpy-16/msr20/mc20/libcrt0.a(__low_level_init.o)
                0x00005c10                __low_level_init
 *(.init4)
 .init4         0x00005c10       0x18 /home/anagha/Downloads/msp430-47/bin/../lib/gcc/msp430/4.7.0/mcpu-430x/mmpy-16/msr20/mc20/libcrt0.a(_copy_data.o)
                0x00005c10                __do_copy_data
 .init4         0x00005c28       0x16 /home/anagha/Downloads/msp430-47/bin/../lib/gcc/msp430/4.7.0/mcpu-430x/mmpy-16/msr20/mc20/libcrt0.a(_clear_bss.o)
                0x00005c28                __do_clear_bss
 *(.init5)
 *(.init6)
 *(.init7)
 *(.init8)
 *(.init9)
 .init9         0x00005c3e      0x31e obj_wismote/contiki-wismote-main.o
                0x00005c3e                main
 *(.fini9)
 .fini9         0x00005f5c        0x0 /home/anagha/Downloads/msp430-47/bin/../lib/gcc/msp430/4.7.0/mcpu-430x/mmpy-16/msr20/mc20/libcrt0.a(__stop_progExec__.o)
                0x00005f5c                __stop_progExec__
 *(.fini8)
 *(.fini7)
 *(.fini6)
 *(.fini5)
 *(.fini4)
 *(.fini3)
 *(.fini2)
 *(.fini1)
 *(.fini0)
 .fini0         0x00005f5c        0x6 /home/anagha/Downloads/msp430-47/bin/../lib/gcc/msp430/4.7.0/mcpu-430x/mmpy-16/msr20/mc20/libcrt0.a(_endless_loop__.o)
                0x00005f5c                _endless_loop__
 *(.fini .fini.*)
                0x00005f62                . = ALIGN (0x2)
                0x00005f62                __ctors_start = .
 *(.ctors)
                0x00005f62                __ctors_end = .
                0x00005f62                __dtors_start = .
 *(.dtors)
                0x00005f62                __dtors_end = .
                0x00005f62                . = ALIGN (0x2)
 *(.text .text.* .gnu.linkonce.t.*)
 .text          0x00005f62        0x4 /home/anagha/Downloads/msp430-47/bin/../lib/gcc/msp430/4.7.0/mcpu-430x/mmpy-16/msr20/mc20/crt0ivtbl64.o
                0x00005f62                __isr_37
                0x00005f62                __isr_51
                0x00005f62                __isr_57
                0x00005f62                __isr_33
                0x00005f62                __isr_32
                0x00005f62                __isr_54
                0x00005f62                __isr_59
                0x00005f62                __isr_39
                0x00005f62                __isr_53
                0x00005f62                __isr_41
                0x00005f62                __isr_60
                0x00005f62                __isr_36
                0x00005f62                __isr_34
                0x00005f62                __isr_44
                0x00005f62                __isr_61
                0x00005f62                __isr_55
                0x00005f62                __isr_43
                0x00005f62                __isr_50
                0x00005f62                __isr_56
                0x00005f62                __isr_38
                0x00005f62                __isr_35
                0x00005f62                __isr_45
                0x00005f62                __isr_62
                0x00005f62                __isr_52
                0x00005f62                __isr_40
 .text.libgcc   0x00005f66       0x22 /home/anagha/Downloads/msp430-47/bin/../lib/gcc/msp430/4.7.0/mcpu-430x/mmpy-16/msr20/mc20/libgcc.a(_udivmod16.o)
                0x00005f66                __udivhi3
                0x00005f66                __ext_udivmod16
                0x00005f80                __umodhi3
 .text.libgcc   0x00005f88       0x3a /home/anagha/Downloads/msp430-47/bin/../lib/gcc/msp430/4.7.0/mcpu-430x/mmpy-16/msr20/mc20/libgcc.a(_divmod16.o)
                0x00005f88                __ext_divmod16
                0x00005f88                __divhi3
                0x00005fba                __modhi3
 .text.libgcc   0x00005fc2       0x38 /home/anagha/Downloads/msp430-47/bin/../lib/gcc/msp430/4.7.0/mcpu-430x/mmpy-16/msr20/mc20/libgcc.a(_udivmod32.o)
                0x00005fc2                __udivsi3
                0x00005fc2                __ext_udivmod32
                0x00005ff0                __umodsi3
 .text.libgcc   0x00005ffa       0x4c /home/anagha/Downloads/msp430-47/bin/../lib/gcc/msp430/4.7.0/mcpu-430x/mmpy-16/msr20/mc20/libgcc.a(_divmod32.o)
                0x00005ffa                __ext_divmod32
                0x00005ffa                __divsi3
                0x0000603c                __modsi3
 .text.printf   0x00006046       0x10 /home/anagha/Downloads/msp430-47/bin/../lib/gcc/msp430/4.7.0/../../../../msp430/lib/mcpu-430x/mmpy-16/msr20/mc20/libc.a(printf.o)
                0x00006046                printf
 .text.append   0x00006056       0x22 /home/anagha/Downloads/msp430-47/bin/../lib/gcc/msp430/4.7.0/../../../../msp430/lib/mcpu-430x/mmpy-16/msr20/mc20/libc.a(sprintf.o)
 .text.call_vuprintf
                0x00006078       0x36 /home/anagha/Downloads/msp430-47/bin/../lib/gcc/msp430/4.7.0/../../../../msp430/lib/mcpu-430x/mmpy-16/msr20/mc20/libc.a(sprintf.o)
 .text.snprintf
                0x000060ae       0x1c /home/anagha/Downloads/msp430-47/bin/../lib/gcc/msp430/4.7.0/../../../../msp430/lib/mcpu-430x/mmpy-16/msr20/mc20/libc.a(sprintf.o)
                0x000060ae                snprintf
 .text.print_field
                0x000060ca      0x176 /home/anagha/Downloads/msp430-47/bin/../lib/gcc/msp430/4.7.0/../../../../msp430/lib/mcpu-430x/mmpy-16/msr20/mc20/libc.a(vuprintf.o)
 .text.vuprintf
                0x00006240      0x74c /home/anagha/Downloads/msp430-47/bin/../lib/gcc/msp430/4.7.0/../../../../msp430/lib/mcpu-430x/mmpy-16/msr20/mc20/libc.a(vuprintf.o)
                0x00006240                vuprintf
 .text.puts     0x0000698c       0x2c /home/anagha/Downloads/msp430-47/bin/../lib/gcc/msp430/4.7.0/../../../../msp430/lib/mcpu-430x/mmpy-16/msr20/mc20/libc.a(puts.o)
                0x0000698c                puts
 .text.rand     0x000069b8       0x26 /home/anagha/Downloads/msp430-47/bin/../lib/gcc/msp430/4.7.0/../../../../msp430/lib/mcpu-430x/mmpy-16/msr20/mc20/libc.a(rand.o)
                0x000069b8                rand
 .text.srand    0x000069de        0xa /home/anagha/Downloads/msp430-47/bin/../lib/gcc/msp430/4.7.0/../../../../msp430/lib/mcpu-430x/mmpy-16/msr20/mc20/libc.a(rand.o)
                0x000069de                srand
 .text.strncmp  0x000069e8       0x2a /home/anagha/Downloads/msp430-47/bin/../lib/gcc/msp430/4.7.0/../../../../msp430/lib/mcpu-430x/mmpy-16/msr20/mc20/libc.a(strncmp.o)
                0x000069e8                strncmp
 .text.memcmp   0x00006a12       0x2c /home/anagha/Downloads/msp430-47/bin/../lib/gcc/msp430/4.7.0/../../../../msp430/lib/mcpu-430x/mmpy-16/msr20/mc20/libc.a(memcmp.o)
                0x00006a12                memcmp
 .text.strcpy   0x00006a3e       0x14 /home/anagha/Downloads/msp430-47/bin/../lib/gcc/msp430/4.7.0/../../../../msp430/lib/mcpu-430x/mmpy-16/msr20/mc20/libc.a(strcpy.o)
                0x00006a3e                strcpy
 .text.strncpy  0x00006a52       0x2a /home/anagha/Downloads/msp430-47/bin/../lib/gcc/msp430/4.7.0/../../../../msp430/lib/mcpu-430x/mmpy-16/msr20/mc20/libc.a(strncpy.o)
                0x00006a52                strncpy
 .text.memcpy   0x00006a7c       0xe8 /home/anagha/Downloads/msp430-47/bin/../lib/gcc/msp430/4.7.0/../../../../msp430/lib/mcpu-430x/mmpy-16/msr20/mc20/libc.a(memcpy.o)
                0x00006a7c                memcpy
 .text.memmove  0x00006b64       0xe8 /home/anagha/Downloads/msp430-47/bin/../lib/gcc/msp430/4.7.0/../../../../msp430/lib/mcpu-430x/mmpy-16/msr20/mc20/libc.a(memmove.o)
                0x00006b64                memmove
 .text.memset   0x00006c4c       0x5c /home/anagha/Downloads/msp430-47/bin/../lib/gcc/msp430/4.7.0/../../../../msp430/lib/mcpu-430x/mmpy-16/msr20/mc20/libc.a(memset.o)
                0x00006c4c                memset
 .text.libgcc   0x00006ca8       0x26 /home/anagha/Downloads/msp430-47/bin/../lib/gcc/msp430/4.7.0/mcpu-430x/mmpy-16/msr20/mc20/libgcc.a(_mulsi3.o)
                0x00006ca8                __mulsi3
 .text.libgcc   0x00006cce       0xbc /home/anagha/Downloads/msp430-47/bin/../lib/gcc/msp430/4.7.0/mcpu-430x/mmpy-16/msr20/mc20/libgcc.a(_udivmod64.o)
                0x00006cce                __xabi_udivmod64
                0x00006d20                __udivdi3
                0x00006d3a                __umoddi3
                0x00006d5c                __udivmoddi4
 .text.crt0     0x00006d8a        0x2 /home/anagha/Downloads/msp430-47/bin/../lib/gcc/msp430/4.7.0/mcpu-430x/mmpy-16/msr20/mc20/libcrt0.a(_unexpected_.o)
                0x00006d8a                _unexpected_
 *(.near.text .near.text.*)
 .near.text.irq_p2
                0x00006d8c       0x74 contiki-wismote.a(button-sensor.o)
                0x00006d8c                irq_p2
                0x00006d8c                __isr_42
 .near.text.cc2520_port1_interrupt
                0x00006e00       0x4e contiki-wismote.a(cc2520-arch.o)
                0x00006e00                __isr_47
                0x00006e00                cc2520_port1_interrupt
 .near.text.uart1_rx_interrupt
                0x00006e4e       0x6c contiki-wismote.a(uart1.o)
                0x00006e4e                __isr_46
                0x00006e4e                uart1_rx_interrupt
 .near.text.timera1
                0x00006eba       0xfa contiki-wismote.a(clock.o)
                0x00006eba                __isr_48
                0x00006eba                timera1
 .near.text.watchdog_interrupt
                0x00006fb4        0x6 contiki-wismote.a(watchdog.o)
                0x00006fb4                watchdog_interrupt
                0x00006fb4                __isr_58
 .near.text.timera0
                0x00006fba       0x5c contiki-wismote.a(rtimer-arch.o)
                0x00006fba                __isr_49
                0x00006fba                timera0
 .any.text.process_thread_webserver_nogui_process
                0x00007016       0x40 border-router.co
 .any.text.ipaddr_add
                0x00007056       0xb6 border-router.co
 .any.text.generate_routes
                0x0000710c      0x288 border-router.co
 .any.text.httpd_simple_get_script
                0x00007394        0x6 border-router.co
                0x00007394                httpd_simple_get_script
 .any.text.request_prefix
                0x0000739a       0x22 border-router.co
                0x0000739a                request_prefix
 .any.text.process_thread_border_router_process
                0x000073bc      0x10c border-router.co
 .any.text.set_prefix_64
                0x000074c8       0x5e border-router.co
                0x000074c8                set_prefix_64
 .any.text.init
                0x00007526       0x1e obj_wismote/slip-bridge.o
 .any.text.slip_input_callback
                0x00007544       0xd8 obj_wismote/slip-bridge.o
 .any.text.output
                0x0000761c       0x4a obj_wismote/slip-bridge.o
 .any.text.putchar
                0x00007666       0x3c obj_wismote/slip-bridge.o
                0x00007666                putchar
 .any.text.handle_input
                0x000076a2       0xee obj_wismote/httpd-simple.o
 .any.text.send_headers
                0x00007790       0x6a obj_wismote/httpd-simple.o
 .any.text.handle_output
                0x000077fa       0xf8 obj_wismote/httpd-simple.o
 .any.text.httpd_appcall
                0x000078f2       0xd2 obj_wismote/httpd-simple.o
                0x000078f2                httpd_appcall
 .any.text.httpd_init
                0x000079c4       0x12 obj_wismote/httpd-simple.o
                0x000079c4                httpd_init
 .any.text.init_platform
                0x000079d6        0xc contiki-wismote.a(contiki-wismote)
                0x000079d6                init_platform
 .any.text.status
                0x000079e2       0x18 contiki-wismote.a(button-sensor.o)
 .any.text.value
                0x000079fa       0x20 contiki-wismote.a(button-sensor.o)
 .any.text.configure
                0x00007a1a       0x4c contiki-wismote.a(button-sensor.o)
 .any.text.wait_ready
                0x00007a66       0x72 contiki-wismote.a(xmem.o)
 .any.text.xmem_init
                0x00007ad8       0x5e contiki-wismote.a(xmem.o)
                0x00007ad8                xmem_init
 .any.text.xmem_pread
                0x00007b36       0xec contiki-wismote.a(xmem.o)
                0x00007b36                xmem_pread
 .any.text.node_id_restore
                0x00007c22       0x38 contiki-wismote.a(node-id.o)
                0x00007c22                node_id_restore
 .any.text.process_thread_sensors_process
                0x00007c5a       0xc2 contiki-wismote.a(sensors.o)
 .any.text.sensors_changed
                0x00007d1c       0x2a contiki-wismote.a(sensors.o)
                0x00007d1c                sensors_changed
 .any.text.get_value
                0x00007d46       0x4a contiki-wismote.a(cc2520.o)
 .any.text.get_object
                0x00007d90        0x4 contiki-wismote.a(cc2520.o)
 .any.text.set_object
                0x00007d94        0x4 contiki-wismote.a(cc2520.o)
 .any.text.cc2520_receiving_packet
                0x00007d98        0x8 contiki-wismote.a(cc2520.o)
 .any.text.pending_packet
                0x00007da0        0xe contiki-wismote.a(cc2520.o)
 .any.text.status
                0x00007dae       0x52 contiki-wismote.a(cc2520.o)
 .any.text.strobe
                0x00007e00       0x4e contiki-wismote.a(cc2520.o)
 .any.text.on   0x00007e4e       0x46 contiki-wismote.a(cc2520.o)
 .any.text.flushrx
                0x00007e94       0xf2 contiki-wismote.a(cc2520.o)
 .any.text.off  0x00007f86       0x72 contiki-wismote.a(cc2520.o)
 .any.text.RELEASE_LOCK
                0x00007ff8       0x28 contiki-wismote.a(cc2520.o)
 .any.text.getrxdata
                0x00008020       0x7e contiki-wismote.a(cc2520.o)
 .any.text.setreg
                0x0000809e       0x6e contiki-wismote.a(cc2520.o)
 .any.text.cc2520_prepare
                0x0000810c       0xde contiki-wismote.a(cc2520.o)
 .any.text.getreg
                0x000081ea       0x7c contiki-wismote.a(cc2520.o)
 .any.text.cc2520_on
                0x00008266       0x22 contiki-wismote.a(cc2520.o)
                0x00008266                cc2520_on
 .any.text.cc2520_off
                0x00008288       0x30 contiki-wismote.a(cc2520.o)
                0x00008288                cc2520_off
 .any.text.cc2520_cca
                0x000082b8       0x76 contiki-wismote.a(cc2520.o)
 .any.text.cc2520_read
                0x0000832e      0x102 contiki-wismote.a(cc2520.o)
 .any.text.process_thread_cc2520_process
                0x00008430       0x54 contiki-wismote.a(cc2520.o)
 .any.text.cc2520_set_channel
                0x00008484       0x78 contiki-wismote.a(cc2520.o)
                0x00008484                cc2520_set_channel
 .any.text.set_value
                0x000084fc       0x3c contiki-wismote.a(cc2520.o)
 .any.text.cc2520_set_pan_addr
                0x00008538      0x1aa contiki-wismote.a(cc2520.o)
                0x00008538                cc2520_set_pan_addr
 .any.text.cc2520_init
                0x000086e2      0x17a contiki-wismote.a(cc2520.o)
                0x000086e2                cc2520_init
 .any.text.cc2520_interrupt
                0x0000885c       0x1c contiki-wismote.a(cc2520.o)
                0x0000885c                cc2520_interrupt
 .any.text.cc2520_get_txpower
                0x00008878       0x1a contiki-wismote.a(cc2520.o)
                0x00008878                cc2520_get_txpower
 .any.text.cc2520_transmit
                0x00008892      0x148 contiki-wismote.a(cc2520.o)
 .any.text.cc2520_send
                0x000089da       0x12 contiki-wismote.a(cc2520.o)
 .any.text.cc2520_arch_init
                0x000089ec       0x48 contiki-wismote.a(cc2520-arch.o)
                0x000089ec                cc2520_arch_init
 .any.text.uart1_active
                0x00008a34        0xe contiki-wismote.a(uart1.o)
                0x00008a34                uart1_active
 .any.text.uart1_set_input
                0x00008a42        0x6 contiki-wismote.a(uart1.o)
                0x00008a42                uart1_set_input
 .any.text.uart1_writeb
                0x00008a48       0x16 contiki-wismote.a(uart1.o)
                0x00008a48                uart1_writeb
 .any.text.uart1_init
                0x00008a5e       0x64 contiki-wismote.a(uart1.o)
                0x00008a5e                uart1_init
 .any.text.slip_arch_writeb
                0x00008ac2        0x6 contiki-wismote.a(slip_uart1.o)
                0x00008ac2                slip_arch_writeb
 .any.text.slip_arch_init
                0x00008ac8        0xa contiki-wismote.a(slip_uart1.o)
                0x00008ac8                slip_arch_init
 .any.text.process_thread_slip_process
                0x00008ad2      0x21c contiki-wismote.a(slip.o)
 .any.text.slip_set_input_callback
                0x00008cee        0x6 contiki-wismote.a(slip.o)
                0x00008cee                slip_set_input_callback
 .any.text.slip_send
                0x00008cf4       0x5a contiki-wismote.a(slip.o)
                0x00008cf4                slip_send
 .any.text.slip_input_byte
                0x00008d4e       0xa6 contiki-wismote.a(slip.o)
                0x00008d4e                slip_input_byte
 .any.text.msp430_init_dco
                0x00008df4       0x20 contiki-wismote.a(msp430.o)
                0x00008df4                msp430_init_dco
 .any.text.msp430_cpu_init
                0x00008e14       0x82 contiki-wismote.a(msp430.o)
                0x00008e14                msp430_cpu_init
 .any.text.splhigh_
                0x00008e96        0x8 contiki-wismote.a(msp430.o)
                0x00008e96                splhigh_
 .any.text.clock_time
                0x00008e9e       0x1a contiki-wismote.a(clock.o)
                0x00008e9e                clock_time
 .any.text.clock_init
                0x00008eb8       0x28 contiki-wismote.a(clock.o)
                0x00008eb8                clock_init
 .any.text.clock_delay
                0x00008ee0        0xc contiki-wismote.a(clock.o)
                0x00008ee0                clock_delay
 .any.text.clock_wait
                0x00008eec       0x24 contiki-wismote.a(clock.o)
                0x00008eec                clock_wait
 .any.text.clock_seconds
                0x00008f10       0x1a contiki-wismote.a(clock.o)
                0x00008f10                clock_seconds
 .any.text.show_leds
                0x00008f2a       0xe8 contiki-wismote.a(leds.o)
 .any.text.leds_init
                0x00009012        0xa contiki-wismote.a(leds.o)
                0x00009012                leds_init
 .any.text.leds_on
                0x0000901c        0xa contiki-wismote.a(leds.o)
                0x0000901c                leds_on
 .any.text.leds_off
                0x00009026        0xe contiki-wismote.a(leds.o)
                0x00009026                leds_off
 .any.text.leds_arch_init
                0x00009034       0x22 contiki-wismote.a(leds-arch.o)
                0x00009034                leds_arch_init
 .any.text.leds_arch_set
                0x00009056       0x4c contiki-wismote.a(leds-arch.o)
                0x00009056                leds_arch_set
 .any.text.watchdog_start
                0x000090a2       0x14 contiki-wismote.a(watchdog.o)
                0x000090a2                watchdog_start
 .any.text.watchdog_periodic
                0x000090b6       0x12 contiki-wismote.a(watchdog.o)
                0x000090b6                watchdog_periodic
 .any.text.watchdog_stop
                0x000090c8       0x16 contiki-wismote.a(watchdog.o)
                0x000090c8                watchdog_stop
 .any.text.watchdog_init
                0x000090de       0x12 contiki-wismote.a(watchdog.o)
                0x000090de                watchdog_init
 .any.text.rtimer_arch_init
                0x000090f0        0xe contiki-wismote.a(rtimer-arch.o)
                0x000090f0                rtimer_arch_init
 .any.text.rtimer_arch_now
                0x000090fe        0xe contiki-wismote.a(rtimer-arch.o)
                0x000090fe                rtimer_arch_now
 .any.text.rtimer_arch_schedule
                0x0000910c        0x6 contiki-wismote.a(rtimer-arch.o)
                0x0000910c                rtimer_arch_schedule
 .any.text.autostart_start
                0x00009112       0x16 contiki-wismote.a(autostart.o)
                0x00009112                autostart_start
 .any.text.process_thread_ctimer_process
                0x00009128       0xa0 contiki-wismote.a(ctimer.o)
 .any.text.ctimer_init
                0x000091c8       0x18 contiki-wismote.a(ctimer.o)
                0x000091c8                ctimer_init
 .any.text.ctimer_set_with_process
                0x000091e0       0x4a contiki-wismote.a(ctimer.o)
                0x000091e0                ctimer_set_with_process
 .any.text.ctimer_set
                0x0000922a       0x10 contiki-wismote.a(ctimer.o)
                0x0000922a                ctimer_set
 .any.text.ctimer_reset
                0x0000923a       0x2c contiki-wismote.a(ctimer.o)
                0x0000923a                ctimer_reset
 .any.text.ctimer_restart
                0x00009266       0x2c contiki-wismote.a(ctimer.o)
                0x00009266                ctimer_restart
 .any.text.ctimer_stop
                0x00009292       0x28 contiki-wismote.a(ctimer.o)
                0x00009292                ctimer_stop
 .any.text.energest_init
                0x000092ba       0x24 contiki-wismote.a(energest.o)
                0x000092ba                energest_init
 .any.text.energest_type_time
                0x000092de       0x3c contiki-wismote.a(energest.o)
                0x000092de                energest_type_time
 .any.text.energest_type_set
                0x0000931a        0xc contiki-wismote.a(energest.o)
                0x0000931a                energest_type_set
 .any.text.energest_flush
                0x00009326       0x38 contiki-wismote.a(energest.o)
                0x00009326                energest_flush
 .any.text.update_time
                0x0000935e       0x70 contiki-wismote.a(etimer.o)
 .any.text.etimer_request_poll
                0x000093ce        0xa contiki-wismote.a(etimer.o)
                0x000093ce                etimer_request_poll
 .any.text.process_thread_etimer_process
                0x000093d8       0xc4 contiki-wismote.a(etimer.o)
 .any.text.add_timer
                0x0000949c       0x40 contiki-wismote.a(etimer.o)
 .any.text.etimer_set
                0x000094dc       0x12 contiki-wismote.a(etimer.o)
                0x000094dc                etimer_set
 .any.text.etimer_reset
                0x000094ee       0x12 contiki-wismote.a(etimer.o)
                0x000094ee                etimer_reset
 .any.text.etimer_restart
                0x00009500       0x12 contiki-wismote.a(etimer.o)
                0x00009500                etimer_restart
 .any.text.etimer_expired
                0x00009512        0xe contiki-wismote.a(etimer.o)
                0x00009512                etimer_expired
 .any.text.etimer_expiration_time
                0x00009520       0x14 contiki-wismote.a(etimer.o)
                0x00009520                etimer_expiration_time
 .any.text.etimer_pending
                0x00009534        0xc contiki-wismote.a(etimer.o)
                0x00009534                etimer_pending
 .any.text.etimer_next_expiration_time
                0x00009540       0x16 contiki-wismote.a(etimer.o)
                0x00009540                etimer_next_expiration_time
 .any.text.etimer_stop
                0x00009556       0x3e contiki-wismote.a(etimer.o)
                0x00009556                etimer_stop
 .any.text.call_process
                0x00009594       0x40 contiki-wismote.a(process.o)
 .any.text.exit_process
                0x000095d4       0x88 contiki-wismote.a(process.o)
 .any.text.do_poll
                0x0000965c       0x30 contiki-wismote.a(process.o)
 .any.text.process_alloc_event
                0x0000968c        0xe contiki-wismote.a(process.o)
                0x0000968c                process_alloc_event
 .any.text.process_init
                0x0000969a       0x1c contiki-wismote.a(process.o)
                0x0000969a                process_init
 .any.text.process_run
                0x000096b6       0x8c contiki-wismote.a(process.o)
                0x000096b6                process_run
 .any.text.process_nevents
                0x00009742        0xe contiki-wismote.a(process.o)
                0x00009742                process_nevents
 .any.text.process_post
                0x00009750       0x4a contiki-wismote.a(process.o)
                0x00009750                process_post
 .any.text.process_post_synch
                0x0000979a       0x12 contiki-wismote.a(process.o)
                0x0000979a                process_post_synch
 .any.text.process_start
                0x000097ac       0x36 contiki-wismote.a(process.o)
                0x000097ac                process_start
 .any.text.process_poll
                0x000097e2       0x18 contiki-wismote.a(process.o)
                0x000097e2                process_poll
 .any.text.rtimer_init
                0x000097fa        0x6 contiki-wismote.a(rtimer.o)
                0x000097fa                rtimer_init
 .any.text.rtimer_run_next
                0x00009800       0x26 contiki-wismote.a(rtimer.o)
                0x00009800                rtimer_run_next
 .any.text.timer_set
                0x00009826       0x1c contiki-wismote.a(timer.o)
                0x00009826                timer_set
 .any.text.timer_reset
                0x00009842        0xe contiki-wismote.a(timer.o)
                0x00009842                timer_reset
 .any.text.timer_restart
                0x00009850       0x14 contiki-wismote.a(timer.o)
                0x00009850                timer_restart
 .any.text.timer_expired
                0x00009864       0x2a contiki-wismote.a(timer.o)
                0x00009864                timer_expired
 .any.text.list_init
                0x0000988e        0x6 contiki-wismote.a(list.o)
                0x0000988e                list_init
 .any.text.list_head
                0x00009894        0x4 contiki-wismote.a(list.o)
                0x00009894                list_head
 .any.text.list_tail
                0x00009898       0x12 contiki-wismote.a(list.o)
                0x00009898                list_tail
 .any.text.list_remove
                0x000098aa       0x34 contiki-wismote.a(list.o)
                0x000098aa                list_remove
 .any.text.list_push
                0x000098de       0x16 contiki-wismote.a(list.o)
                0x000098de                list_push
 .any.text.list_add
                0x000098f4       0x26 contiki-wismote.a(list.o)
                0x000098f4                list_add
 .any.text.list_length
                0x0000991a       0x10 contiki-wismote.a(list.o)
                0x0000991a                list_length
 .any.text.list_item_next
                0x0000992a        0xc contiki-wismote.a(list.o)
                0x0000992a                list_item_next
 .any.text.memb_init
                0x00009936       0x36 contiki-wismote.a(memb.o)
                0x00009936                memb_init
 .any.text.memb_alloc
                0x0000996c       0x3e contiki-wismote.a(memb.o)
                0x0000996c                memb_alloc
 .any.text.memb_free
                0x000099aa       0x3a contiki-wismote.a(memb.o)
                0x000099aa                memb_free
 .any.text.memb_inmemb
                0x000099e4       0x2a contiki-wismote.a(memb.o)
                0x000099e4                memb_inmemb
 .any.text.memb_numfree
                0x00009a0e       0x26 contiki-wismote.a(memb.o)
                0x00009a0e                memb_numfree
 .any.text.random_init
                0x00009a34        0x6 contiki-wismote.a(random.o)
                0x00009a34                random_init
 .any.text.random_rand
                0x00009a3a        0x6 contiki-wismote.a(random.o)
                0x00009a3a                random_rand
 .any.text.clear_fragments
                0x00009a40       0x38 contiki-wismote.a(sicslowpan.o)
 .any.text.set_packet_attrs
                0x00009a78       0x46 contiki-wismote.a(sicslowpan.o)
 .any.text.addr_context_lookup_by_number
                0x00009abe       0x30 contiki-wismote.a(sicslowpan.o)
 .any.text.compress_addr_64
                0x00009aee       0x9a contiki-wismote.a(sicslowpan.o)
 .any.text.store_fragment
                0x00009b88       0x6e contiki-wismote.a(sicslowpan.o)
 .any.text.uncompress_addr
                0x00009bf6       0x96 contiki-wismote.a(sicslowpan.o)
 .any.text.sicslowpan_init
                0x00009c8c       0x24 contiki-wismote.a(sicslowpan.o)
                0x00009c8c                sicslowpan_init
 .any.text.addr_context_lookup_by_prefix
                0x00009cb0       0x4a contiki-wismote.a(sicslowpan.o)
 .any.text.packet_sent
                0x00009cfa       0x22 contiki-wismote.a(sicslowpan.o)
 .any.text.add_fragment
                0x00009d1c      0x160 contiki-wismote.a(sicslowpan.o)
 .any.text.input
                0x00009e7c      0x60e contiki-wismote.a(sicslowpan.o)
 .any.text.send_packet
                0x0000a48a       0x1a contiki-wismote.a(sicslowpan.o)
 .any.text.output
                0x0000a4a4      0x67c contiki-wismote.a(sicslowpan.o)
 .any.text.chksum
                0x0000ab20       0x32 contiki-wismote.a(uip6.o)
 .any.text.upper_layer_chksum
                0x0000ab52       0x56 contiki-wismote.a(uip6.o)
 .any.text.ext_hdr_options_process
                0x0000aba8       0xc2 contiki-wismote.a(uip6.o)
 .any.text.uip_add32
                0x0000ac6a       0x60 contiki-wismote.a(uip6.o)
                0x0000ac6a                uip_add32
 .any.text.uip_add_rcv_nxt
                0x0000acca       0x2e contiki-wismote.a(uip6.o)
 .any.text.uip_icmp6chksum
                0x0000acf8        0xa contiki-wismote.a(uip6.o)
                0x0000acf8                uip_icmp6chksum
 .any.text.uip_tcpchksum
                0x0000ad02        0xa contiki-wismote.a(uip6.o)
                0x0000ad02                uip_tcpchksum
 .any.text.uip_udpchksum
                0x0000ad0c        0xa contiki-wismote.a(uip6.o)
                0x0000ad0c                uip_udpchksum
 .any.text.uip_init
                0x0000ad16       0x56 contiki-wismote.a(uip6.o)
                0x0000ad16                uip_init
 .any.text.remove_ext_hdr
                0x0000ad6c       0x50 contiki-wismote.a(uip6.o)
                0x0000ad6c                remove_ext_hdr
 .any.text.uip_unlisten
                0x0000adbc       0x1a contiki-wismote.a(uip6.o)
                0x0000adbc                uip_unlisten
 .any.text.uip_listen
                0x0000add6       0x1a contiki-wismote.a(uip6.o)
                0x0000add6                uip_listen
 .any.text.uip_process
                0x0000adf0      0xd94 contiki-wismote.a(uip6.o)
                0x0000adf0                uip_process
 .any.text.uip_htonl
                0x0000bb84       0x2a contiki-wismote.a(uip6.o)
                0x0000bb84                uip_htonl
 .any.text.uip_send
                0x0000bbae       0x48 contiki-wismote.a(uip6.o)
                0x0000bbae                uip_send
 .any.text.uip_ds6_list_loop
                0x0000bbf6       0x66 contiki-wismote.a(uip-ds6.o)
                0x0000bbf6                uip_ds6_list_loop
 .any.text.uip_ds6_prefix_add
                0x0000bc5c       0xb4 contiki-wismote.a(uip-ds6.o)
                0x0000bc5c                uip_ds6_prefix_add
 .any.text.uip_ds6_is_addr_onlink
                0x0000bd10       0x4c contiki-wismote.a(uip-ds6.o)
                0x0000bd10                uip_ds6_is_addr_onlink
 .any.text.uip_ds6_addr_lookup
                0x0000bd5c       0x2a contiki-wismote.a(uip-ds6.o)
                0x0000bd5c                uip_ds6_addr_lookup
 .any.text.uip_ds6_get_link_local
                0x0000bd86       0x3e contiki-wismote.a(uip-ds6.o)
                0x0000bd86                uip_ds6_get_link_local
 .any.text.uip_ds6_get_global
                0x0000bdc4       0x3e contiki-wismote.a(uip-ds6.o)
                0x0000bdc4                uip_ds6_get_global
 .any.text.uip_ds6_maddr_add
                0x0000be02       0x48 contiki-wismote.a(uip-ds6.o)
                0x0000be02                uip_ds6_maddr_add
 .any.text.uip_ds6_addr_add
                0x0000be4a       0xb4 contiki-wismote.a(uip-ds6.o)
                0x0000be4a                uip_ds6_addr_add
 .any.text.uip_ds6_maddr_rm
                0x0000befe        0xa contiki-wismote.a(uip-ds6.o)
                0x0000befe                uip_ds6_maddr_rm
 .any.text.uip_ds6_maddr_lookup
                0x0000bf08       0x2a contiki-wismote.a(uip-ds6.o)
                0x0000bf08                uip_ds6_maddr_lookup
 .any.text.uip_ds6_addr_rm
                0x0000bf32       0x54 contiki-wismote.a(uip-ds6.o)
                0x0000bf32                uip_ds6_addr_rm
 .any.text.uip_ds6_periodic
                0x0000bf86       0x46 contiki-wismote.a(uip-ds6.o)
                0x0000bf86                uip_ds6_periodic
 .any.text.uip_ds6_set_addr_iid
                0x0000bfcc       0x14 contiki-wismote.a(uip-ds6.o)
                0x0000bfcc                uip_ds6_set_addr_iid
 .any.text.get_match_length
                0x0000bfe0       0x3c contiki-wismote.a(uip-ds6.o)
                0x0000bfe0                get_match_length
 .any.text.uip_ds6_select_src
                0x0000c01c       0x9a contiki-wismote.a(uip-ds6.o)
                0x0000c01c                uip_ds6_select_src
 .any.text.uip_ds6_compute_reachable_time
                0x0000c0b6       0x36 contiki-wismote.a(uip-ds6.o)
                0x0000c0b6                uip_ds6_compute_reachable_time
 .any.text.uip_ds6_init
                0x0000c0ec      0x164 contiki-wismote.a(uip-ds6.o)
                0x0000c0ec                uip_ds6_init
 .any.text.uip_ds6_nbr_rm
                0x0000c250       0x1e contiki-wismote.a(uip-ds6-nbr.o)
                0x0000c250                uip_ds6_nbr_rm
 .any.text.uip_ds6_neighbors_init
                0x0000c26e       0x12 contiki-wismote.a(uip-ds6-nbr.o)
                0x0000c26e                uip_ds6_neighbors_init
 .any.text.uip_ds6_nbr_add
                0x0000c280       0x36 contiki-wismote.a(uip-ds6-nbr.o)
                0x0000c280                uip_ds6_nbr_add
 .any.text.uip_ds6_nbr_get_ll
                0x0000c2b6        0xc contiki-wismote.a(uip-ds6-nbr.o)
                0x0000c2b6                uip_ds6_nbr_get_ll
 .any.text.uip_ds6_nbr_num
                0x0000c2c2       0x24 contiki-wismote.a(uip-ds6-nbr.o)
                0x0000c2c2                uip_ds6_nbr_num
 .any.text.uip_ds6_nbr_lookup
                0x0000c2e6       0x3e contiki-wismote.a(uip-ds6-nbr.o)
                0x0000c2e6                uip_ds6_nbr_lookup
 .any.text.uip_ds6_nbr_ll_lookup
                0x0000c324        0xc contiki-wismote.a(uip-ds6-nbr.o)
                0x0000c324                uip_ds6_nbr_ll_lookup
 .any.text.uip_ds6_nbr_ipaddr_from_lladdr
                0x0000c330        0x6 contiki-wismote.a(uip-ds6-nbr.o)
                0x0000c330                uip_ds6_nbr_ipaddr_from_lladdr
 .any.text.uip_ds6_nbr_lladdr_from_ipaddr
                0x0000c336       0x12 contiki-wismote.a(uip-ds6-nbr.o)
                0x0000c336                uip_ds6_nbr_lladdr_from_ipaddr
 .any.text.uip_ds6_link_neighbor_callback
                0x0000c348       0x32 contiki-wismote.a(uip-ds6-nbr.o)
                0x0000c348                uip_ds6_link_neighbor_callback
 .any.text.call_route_callback
                0x0000c37a       0x40 contiki-wismote.a(uip-ds6-route.o)
 .any.text.uip_ds6_route_init
                0x0000c3ba       0x36 contiki-wismote.a(uip-ds6-route.o)
                0x0000c3ba                uip_ds6_route_init
 .any.text.uip_ds6_route_nexthop
                0x0000c3f0       0x1a contiki-wismote.a(uip-ds6-route.o)
                0x0000c3f0                uip_ds6_route_nexthop
 .any.text.uip_ds6_route_head
                0x0000c40a        0xa contiki-wismote.a(uip-ds6-route.o)
                0x0000c40a                uip_ds6_route_head
 .any.text.uip_ds6_route_next
                0x0000c414        0xe contiki-wismote.a(uip-ds6-route.o)
                0x0000c414                uip_ds6_route_next
 .any.text.assert_nbr_routes_list_sane
                0x0000c422       0x48 contiki-wismote.a(uip-ds6-route.o)
 .any.text.uip_ds6_route_is_nexthop
                0x0000c46a       0x32 contiki-wismote.a(uip-ds6-route.o)
                0x0000c46a                uip_ds6_route_is_nexthop
 .any.text.uip_ds6_route_lookup
                0x0000c49c       0xc8 contiki-wismote.a(uip-ds6-route.o)
                0x0000c49c                uip_ds6_route_lookup
 .any.text.uip_ds6_aodv_route_lookup
                0x0000c564       0x94 contiki-wismote.a(uip-ds6-route.o)
                0x0000c564                uip_ds6_aodv_route_lookup
 .any.text.uip_ds6_route_rm
                0x0000c5f8       0xee contiki-wismote.a(uip-ds6-route.o)
                0x0000c5f8                uip_ds6_route_rm
 .any.text.rm_routelist
                0x0000c6e6       0x44 contiki-wismote.a(uip-ds6-route.o)
 .any.text.rm_routelist_callback
                0x0000c72a        0x6 contiki-wismote.a(uip-ds6-route.o)
 .any.text.uip_ds6_route_add
                0x0000c730      0x1a8 contiki-wismote.a(uip-ds6-route.o)
                0x0000c730                uip_ds6_route_add
 .any.text.uip_ds6_defrt_rm
                0x0000c8d8       0x54 contiki-wismote.a(uip-ds6-route.o)
                0x0000c8d8                uip_ds6_defrt_rm
 .any.text.uip_ds6_defrt_lookup
                0x0000c92c       0x32 contiki-wismote.a(uip-ds6-route.o)
                0x0000c92c                uip_ds6_defrt_lookup
 .any.text.uip_ds6_defrt_add
                0x0000c95e       0xac contiki-wismote.a(uip-ds6-route.o)
                0x0000c95e                uip_ds6_defrt_add
 .any.text.uip_ds6_defrt_periodic
                0x0000ca0a       0x40 contiki-wismote.a(uip-ds6-route.o)
                0x0000ca0a                uip_ds6_defrt_periodic
 .any.text.echo_reply_input
                0x0000ca4a       0xaa contiki-wismote.a(uip-icmp6.o)
 .any.text.echo_request_input
                0x0000caf4       0xca contiki-wismote.a(uip-icmp6.o)
 .any.text.uip_icmp6_input
                0x0000cbbe       0x44 contiki-wismote.a(uip-icmp6.o)
                0x0000cbbe                uip_icmp6_input
 .any.text.uip_icmp6_register_input_handler
                0x0000cc02        0xc contiki-wismote.a(uip-icmp6.o)
                0x0000cc02                uip_icmp6_register_input_handler
 .any.text.uip_icmp6_error_output
                0x0000cc0e      0x16e contiki-wismote.a(uip-icmp6.o)
                0x0000cc0e                uip_icmp6_error_output
 .any.text.uip_icmp6_send
                0x0000cd7c       0x84 contiki-wismote.a(uip-icmp6.o)
                0x0000cd7c                uip_icmp6_send
 .any.text.uip_icmp6_init
                0x0000ce00       0x12 contiki-wismote.a(uip-icmp6.o)
                0x0000ce00                uip_icmp6_init
 .any.text.uip_nd6_init
                0x0000ce12        0x2 contiki-wismote.a(uip-nd6.o)
                0x0000ce12                uip_nd6_init
 .any.text.psock_send
                0x0000ce14       0xae contiki-wismote.a(psock.o)
                0x0000ce14                psock_send
 .any.text.psock_datalen
                0x0000cec2        0xc contiki-wismote.a(psock.o)
                0x0000cec2                psock_datalen
 .any.text.psock_newdata
                0x0000cece       0x24 contiki-wismote.a(psock.o)
                0x0000cece                psock_newdata
 .any.text.psock_readto
                0x0000cef2       0xb4 contiki-wismote.a(psock.o)
                0x0000cef2                psock_readto
 .any.text.psock_init
                0x0000cfa6       0x22 contiki-wismote.a(psock.o)
                0x0000cfa6                psock_init
 .any.text.start_periodic_tcp_timer
                0x0000cfc8       0x16 contiki-wismote.a(tcpip.o)
 .any.text.tcpip_output
                0x0000cfde       0x10 contiki-wismote.a(tcpip.o)
                0x0000cfde                tcpip_output
 .any.text.tcpip_set_outputfunc
                0x0000cfee        0x6 contiki-wismote.a(tcpip.o)
                0x0000cfee                tcpip_set_outputfunc
 .any.text.tcp_listen
                0x0000cff4       0x24 contiki-wismote.a(tcpip.o)
                0x0000cff4                tcp_listen
 .any.text.tcp_attach
                0x0000d018        0xc contiki-wismote.a(tcpip.o)
                0x0000d018                tcp_attach
 .any.text.tcpip_input
                0x0000d024       0x16 contiki-wismote.a(tcpip.o)
                0x0000d024                tcpip_input
 .any.text.tcpip_ipv6_output
                0x0000d03a      0x168 contiki-wismote.a(tcpip.o)
                0x0000d03a                tcpip_ipv6_output
 .any.text.process_thread_tcpip_process
                0x0000d1a2      0x1ac contiki-wismote.a(tcpip.o)
 .any.text.tcpip_uipcall
                0x0000d34e       0x62 contiki-wismote.a(tcpip.o)
                0x0000d34e                tcpip_uipcall
 .any.text.uip_debug_ipaddr_print
                0x0000d3b0       0xbc contiki-wismote.a(uip-debug.o)
                0x0000d3b0                uip_debug_ipaddr_print
 .any.text.rpl_get_mode
                0x0000d46c        0x6 contiki-wismote.a(rpl.o)
                0x0000d46c                rpl_get_mode
 .any.text.rpl_purge_routes
                0x0000d472       0xa0 contiki-wismote.a(rpl.o)
                0x0000d472                rpl_purge_routes
 .any.text.rpl_remove_routes
                0x0000d512       0x22 contiki-wismote.a(rpl.o)
                0x0000d512                rpl_remove_routes
 .any.text.rpl_remove_routes_by_nexthop
                0x0000d534       0x3e contiki-wismote.a(rpl.o)
                0x0000d534                rpl_remove_routes_by_nexthop
 .any.text.rpl_add_route
                0x0000d572       0x4e contiki-wismote.a(rpl.o)
                0x0000d572                rpl_add_route
 .any.text.rpl_link_neighbor_callback
                0x0000d5c0       0x5c contiki-wismote.a(rpl.o)
                0x0000d5c0                rpl_link_neighbor_callback
 .any.text.rpl_ipv6_neighbor_callback
                0x0000d61c       0x30 contiki-wismote.a(rpl.o)
                0x0000d61c                rpl_ipv6_neighbor_callback
 .any.text.rpl_purge_dags
                0x0000d64c       0x52 contiki-wismote.a(rpl.o)
                0x0000d64c                rpl_purge_dags
 .any.text.rpl_init
                0x0000d69e       0x44 contiki-wismote.a(rpl.o)
                0x0000d69e                rpl_init
 .any.text.lollipop_greater_than
                0x0000d6e2       0x3c contiki-wismote.a(rpl-dag.o)
 .any.text.find_parent_any_dag_any_instance
                0x0000d71e       0x14 contiki-wismote.a(rpl-dag.o)
 .any.text.set_ip_from_prefix
                0x0000d732       0x30 contiki-wismote.a(rpl-dag.o)
 .any.text.check_prefix
                0x0000d762       0xa4 contiki-wismote.a(rpl-dag.o)
 .any.text.add_nbr_from_dio
                0x0000d806       0x32 contiki-wismote.a(rpl-dag.o)
 .any.text.rpl_dag_init
                0x0000d838        0xe contiki-wismote.a(rpl-dag.o)
                0x0000d838                rpl_dag_init
 .any.text.rpl_get_parent
                0x0000d846        0xc contiki-wismote.a(rpl-dag.o)
                0x0000d846                rpl_get_parent
 .any.text.rpl_get_parent_link_metric
                0x0000d852       0x2a contiki-wismote.a(rpl-dag.o)
                0x0000d852                rpl_get_parent_link_metric
 .any.text.rpl_rank_via_parent
                0x0000d87c       0x2a contiki-wismote.a(rpl-dag.o)
                0x0000d87c                rpl_rank_via_parent
 .any.text.rpl_get_parent_lladdr
                0x0000d8a6        0xc contiki-wismote.a(rpl-dag.o)
                0x0000d8a6                rpl_get_parent_lladdr
 .any.text.rpl_get_parent_ipaddr
                0x0000d8b2        0xa contiki-wismote.a(rpl-dag.o)
                0x0000d8b2                rpl_get_parent_ipaddr
 .any.text.rpl_set_preferred_parent
                0x0000d8bc       0x88 contiki-wismote.a(rpl-dag.o)
 .any.text.rpl_get_parent_link_stats
                0x0000d944        0xa contiki-wismote.a(rpl-dag.o)
                0x0000d944                rpl_get_parent_link_stats
 .any.text.rpl_print_neighbor_list
                0x0000d94e      0x10e contiki-wismote.a(rpl-dag.o)
                0x0000d94e                rpl_print_neighbor_list
 .any.text.rpl_parent_is_fresh
                0x0000da5c        0xa contiki-wismote.a(rpl-dag.o)
                0x0000da5c                rpl_parent_is_fresh
 .any.text.best_parent
                0x0000da66       0x66 contiki-wismote.a(rpl-dag.o)
 .any.text.rpl_parent_is_reachable
                0x0000dacc       0x4a contiki-wismote.a(rpl-dag.o)
                0x0000dacc                rpl_parent_is_reachable
 .any.text.rpl_set_prefix
                0x0000db16       0x8e contiki-wismote.a(rpl-dag.o)
                0x0000db16                rpl_set_prefix
 .any.text.rpl_alloc_instance
                0x0000dba4       0x4a contiki-wismote.a(rpl-dag.o)
                0x0000dba4                rpl_alloc_instance
 .any.text.nbr_callback
                0x0000dbee        0x6 contiki-wismote.a(rpl-dag.o)
 .any.text.get16
                0x0000dbf4        0xe contiki-wismote.a(rpl-icmp6.o)

.rodata         0x0000dc04     0x223d
                0x0000dc04                . = ALIGN (0x2)
 *(.rodata .rodata.* .gnu.linkonce.r.*)
 .rodata.ipaddr_add
                0x0000dc04        0x8 border-router.co
 .rodata.generate_routes
                0x0000dc0c       0x81 border-router.co
 .rodata.process_thread_border_router_process
                0x0000dc8d       0x17 border-router.co
 .rodata.autostart_processes
                0x0000dca4        0x6 border-router.co
                0x0000dca4                autostart_processes
 .rodata        0x0000dcaa       0x21 border-router.co
 .rodata.slip_input_callback
                0x0000dccb       0x67 obj_wismote/slip-bridge.o
 .rodata.output
                0x0000dd32       0x3a obj_wismote/slip-bridge.o
 .rodata.rpl_interface
                0x0000dd6c        0x8 obj_wismote/slip-bridge.o
                0x0000dd6c                rpl_interface
 .rodata.handle_output
                0x0000dd74       0x59 obj_wismote/httpd-simple.o
 .rodata.http_get
                0x0000ddcd        0x5 obj_wismote/httpd-simple.o
                0x0000ddcd                http_get
 .rodata.http_header_404
                0x0000ddd2       0x5d obj_wismote/httpd-simple.o
                0x0000ddd2                http_header_404
 .rodata.http_header_200
                0x0000de2f       0x56 obj_wismote/httpd-simple.o
                0x0000de2f                http_header_200
 .rodata.http_content_type_html
                0x0000de85       0x1c obj_wismote/httpd-simple.o
                0x0000de85                http_content_type_html
 .rodata        0x0000dea1      0x119 obj_wismote/contiki-wismote-main.o
 .rodata        0x0000dfba        0x7 contiki-wismote.a(button-sensor.o)
 *fill*         0x0000dfc1        0x1 00
 .rodata.button_sensor
                0x0000dfc2        0xe contiki-wismote.a(button-sensor.o)
                0x0000dfc2                button_sensor
 .rodata        0x0000dfd0        0x8 contiki-wismote.a(sensors.o)
 .rodata.cc2520_driver
                0x0000dfd8       0x38 contiki-wismote.a(cc2520.o)
                0x0000dfd8                cc2520_driver
 .rodata        0x0000e010        0xe contiki-wismote.a(cc2520.o)
 .rodata.process_thread_slip_process
                0x0000e01e       0x15 contiki-wismote.a(slip.o)
 .rodata        0x0000e033        0xc contiki-wismote.a(slip.o)
 .rodata        0x0000e03f        0xf contiki-wismote.a(ctimer.o)
 .rodata        0x0000e04e        0xc contiki-wismote.a(etimer.o)
 .rodata        0x0000e05a        0xb contiki-wismote.a(sicslowpan.o)
 *fill*         0x0000e065        0x1 00
 .rodata.sicslowpan_driver
                0x0000e066        0xa contiki-wismote.a(sicslowpan.o)
                0x0000e066                sicslowpan_driver
 .rodata.llprefix
                0x0000e070        0x2 contiki-wismote.a(sicslowpan.o)
                0x0000e070                llprefix
 .rodata.unc_mxconf
                0x0000e072        0x4 contiki-wismote.a(sicslowpan.o)
                0x0000e072                unc_mxconf
 .rodata.unc_ctxconf
                0x0000e076        0x4 contiki-wismote.a(sicslowpan.o)
                0x0000e076                unc_ctxconf
 .rodata.unc_llconf
                0x0000e07a        0x4 contiki-wismote.a(sicslowpan.o)
                0x0000e07a                unc_llconf
 .rodata.ttl_values
                0x0000e07e        0x4 contiki-wismote.a(sicslowpan.o)
 *fill*         0x0000e082        0x2 00
 .rodata.uip_process
                0x0000e084       0x40 contiki-wismote.a(uip6.o)
 .rodata.uip_ds6_prefix_add
                0x0000e0c4       0x6d contiki-wismote.a(uip-ds6.o)
 .rodata.uip_ds6_is_addr_onlink
                0x0000e131       0x19 contiki-wismote.a(uip-ds6.o)
 .rodata.uip_ds6_init
                0x0000e14a       0x95 contiki-wismote.a(uip-ds6.o)
 .rodata.assert_nbr_routes_list_sane
                0x0000e1df       0xb5 contiki-wismote.a(uip-ds6-route.o)
 .rodata.uip_ds6_route_is_nexthop
                0x0000e294       0x37 contiki-wismote.a(uip-ds6-route.o)
 .rodata.uip_ds6_route_lookup
                0x0000e2cb       0x68 contiki-wismote.a(uip-ds6-route.o)
 .rodata.uip_ds6_aodv_route_lookup
                0x0000e333       0x2a contiki-wismote.a(uip-ds6-route.o)
 .rodata.uip_ds6_route_rm
                0x0000e35d       0x93 contiki-wismote.a(uip-ds6-route.o)
 .rodata.rm_routelist
                0x0000e3f0       0x1b contiki-wismote.a(uip-ds6-route.o)
 .rodata.uip_ds6_route_add
                0x0000e40b       0xb2 contiki-wismote.a(uip-ds6-route.o)
 .rodata.uip_ds6_defrt_rm
                0x0000e4bd       0x17 contiki-wismote.a(uip-ds6-route.o)
 .rodata.uip_ds6_defrt_add
                0x0000e4d4       0x81 contiki-wismote.a(uip-ds6-route.o)
 .rodata.uip_ds6_defrt_periodic
                0x0000e555       0x2f contiki-wismote.a(uip-ds6-route.o)
 .rodata.tcpip_ipv6_output
                0x0000e584       0xec contiki-wismote.a(tcpip.o)
 .rodata        0x0000e670        0xd contiki-wismote.a(tcpip.o)
 .rodata.uip_debug_ipaddr_print
                0x0000e67d       0x28 contiki-wismote.a(uip-debug.o)
 .rodata.check_prefix
                0x0000e6a5       0x40 contiki-wismote.a(rpl-dag.o)
 .rodata.add_nbr_from_dio
                0x0000e6e5       0x27 contiki-wismote.a(rpl-dag.o)
 .rodata.rpl_set_preferred_parent
                0x0000e70c       0x31 contiki-wismote.a(rpl-dag.o)
 .rodata.rpl_print_neighbor_list
                0x0000e73d       0x84 contiki-wismote.a(rpl-dag.o)
 .rodata.rpl_set_prefix
                0x0000e7c1       0x6b contiki-wismote.a(rpl-dag.o)
 .rodata.rpl_set_default_route
                0x0000e82c       0x48 contiki-wismote.a(rpl-dag.o)
 .rodata.rpl_add_parent
                0x0000e874       0x3a contiki-wismote.a(rpl-dag.o)
 .rodata.rpl_select_dag
                0x0000e8ae       0xaa contiki-wismote.a(rpl-dag.o)
 .rodata.rpl_nullify_parent
                0x0000e958       0x35 contiki-wismote.a(rpl-dag.o)
 .rodata.rpl_remove_parent
                0x0000e98d       0x16 contiki-wismote.a(rpl-dag.o)
 .rodata.remove_parents.constprop.5
                0x0000e9a3       0x29 contiki-wismote.a(rpl-dag.o)
 .rodata.rpl_free_dag
                0x0000e9cc       0x16 contiki-wismote.a(rpl-dag.o)
 .rodata.rpl_move_parent
                0x0000e9e2       0x24 contiki-wismote.a(rpl-dag.o)
 .rodata.rpl_get_instance
                0x0000ea06       0x31 contiki-wismote.a(rpl-dag.o)
 .rodata.rpl_alloc_dag
                0x0000ea37       0x1d contiki-wismote.a(rpl-dag.o)
 .rodata.rpl_repair_root
                0x0000ea54       0x6b contiki-wismote.a(rpl-dag.o)
 .rodata.rpl_set_root_ptop
                0x0000eabf      0x162 contiki-wismote.a(rpl-dag.o)
 .rodata.rpl_set_root
                0x0000ec21       0xda contiki-wismote.a(rpl-dag.o)
 .rodata.rpl_join_instance
                0x0000ecfb      0x253 contiki-wismote.a(rpl-dag.o)
 .rodata.rpl_local_repair
                0x0000ef4e       0x7f contiki-wismote.a(rpl-dag.o)
 .rodata.rpl_process_parent_event
                0x0000efcd      0x107 contiki-wismote.a(rpl-dag.o)
 .rodata.global_repair
                0x0000f0d4       0x9f contiki-wismote.a(rpl-dag.o)
 .rodata.rpl_recalculate_ranks
                0x0000f173       0x4a contiki-wismote.a(rpl-dag.o)
 .rodata.rpl_process_dio
                0x0000f1bd      0x330 contiki-wismote.a(rpl-dag.o)
 .rodata.rpl_process_dio_ptop
                0x0000f4ed       0x61 contiki-wismote.a(rpl-dag.o)
 *fill*         0x0000f54e        0x2 00
 .rodata.dio_input
                0x0000f550      0x248 contiki-wismote.a(rpl-icmp6.o)
 .rodata.rpl_icmp6_update_nbr_table
                0x0000f798       0x2a contiki-wismote.a(rpl-icmp6.o)
 .rodata.dao_input
                0x0000f7c2      0x2c8 contiki-wismote.a(rpl-icmp6.o)
 .rodata.dis_output
                0x0000fa8a       0x17 contiki-wismote.a(rpl-icmp6.o)
 .rodata.dio_output
                0x0000faa1      0x10f contiki-wismote.a(rpl-icmp6.o)
 .rodata.dis_input
                0x0000fbb0       0x99 contiki-wismote.a(rpl-icmp6.o)
 .rodata.dao_output_target
                0x0000fc49      0x12f contiki-wismote.a(rpl-icmp6.o)
 .rodata.dao_output
                0x0000fd78       0x3b contiki-wismote.a(rpl-icmp6.o)
 *fill*         0x0000fdb3        0x1 00
 .rodata.linkaddr_null
                0x0000fdb4        0x8 contiki-wismote.a(linkaddr.o)
                0x0000fdb4                linkaddr_null
 .rodata.net_debug_lladdr_print
                0x0000fdbc       0x14 contiki-wismote.a(net-debug.o)
 .rodata        0x0000fdd0        0x5 contiki-wismote.a(csma.o)
 *fill*         0x0000fdd5        0x1 00
 .rodata.csma_driver
                0x0000fdd6       0x1a contiki-wismote.a(csma.o)
                0x0000fdd6                csma_driver
 .rodata.framer_802154
                0x0000fdf0        0xc contiki-wismote.a(framer-802154.o)
                0x0000fdf0                framer_802154
 .rodata        0x0000fdfc        0x8 contiki-wismote.a(nullrdc.o)
 .rodata.nullrdc_driver
                0x0000fe04       0x1e contiki-wismote.a(nullrdc.o)
                0x0000fe04                nullrdc_driver
 .rodata        0x0000fe22        0x8 contiki-wismote.a(nullsec.o)
 .rodata.nullsec_driver
                0x0000fe2a        0xe contiki-wismote.a(nullsec.o)
                0x0000fe2a                nullsec_driver
 .rodata.CSWTCH.16
                0x0000fe38        0x2 contiki-wismote.a(frame802154.o)
 .rodata.vuprintf
                0x0000fe3a        0x7 /home/anagha/Downloads/msp430-47/bin/../lib/gcc/msp430/4.7.0/../../../../msp430/lib/mcpu-430x/mmpy-16/msr20/mc20/libc.a(vuprintf.o)
 *(.near.rodata .near.rodata.*)
                0x0000fe42                . = ALIGN (0x2)
                0x0000fe42                _etext = .

.data           0x00001c00      0x13e load address 0x0000fe42
                0x00001c00                . = ALIGN (0x2)
                0x00001c00                __data_start = .
 *(.data .data.* .gnu.linkonce.d.*)
 .data.webserver_nogui_process
                0x00001c00        0xc border-router.co
                0x00001c00                webserver_nogui_process
 .data.border_router_process
                0x00001c0c        0xc border-router.co
                0x00001c0c                border_router_process
 .data.conns    0x00001c18        0x8 obj_wismote/httpd-simple.o
 .data.sensors  0x00001c20        0x4 contiki-wismote.a(contiki-wismote)
                0x00001c20                sensors
 .data.sensors_process
                0x00001c24        0xc contiki-wismote.a(sensors.o)
                0x00001c24                sensors_process
 .data.cc2520_process
                0x00001c30        0xc contiki-wismote.a(cc2520.o)
                0x00001c30                cc2520_process
 .data.slip_process
                0x00001c3c        0xc contiki-wismote.a(slip.o)
                0x00001c3c                slip_process
 .data.cur_break
                0x00001c48        0x2 contiki-wismote.a(msp430.o)
 .data.ctimer_process
                0x00001c4a        0xc contiki-wismote.a(ctimer.o)
                0x00001c4a                ctimer_process
 .data.etimer_process
                0x00001c56        0xc contiki-wismote.a(etimer.o)
                0x00001c56                etimer_process
 .data.ds6_neighbors
                0x00001c62        0x2 contiki-wismote.a(uip-ds6-nbr.o)
                0x00001c62                ds6_neighbors
 .data.ds6_neighbors_struct
                0x00001c64        0xa contiki-wismote.a(uip-ds6-nbr.o)
 .data.nbr_routes
                0x00001c6e        0x2 contiki-wismote.a(uip-ds6-route.o)
                0x00001c6e                nbr_routes
 .data.routememb
                0x00001c70        0x8 contiki-wismote.a(uip-ds6-route.o)
 .data.defaultroutermemb
                0x00001c78        0x8 contiki-wismote.a(uip-ds6-route.o)
 .data.neighborroutememb
                0x00001c80        0x8 contiki-wismote.a(uip-ds6-route.o)
 .data.nbr_routes_struct
                0x00001c88        0xa contiki-wismote.a(uip-ds6-route.o)
 .data.echo_request_handler
                0x00001c92        0x8 contiki-wismote.a(uip-icmp6.o)
 .data.echo_reply_handler
                0x00001c9a        0x8 contiki-wismote.a(uip-icmp6.o)
 .data.tcpip_process
                0x00001ca2        0xc contiki-wismote.a(tcpip.o)
                0x00001ca2                tcpip_process
 .data.rpl_parents
                0x00001cae        0x2 contiki-wismote.a(rpl-dag.o)
                0x00001cae                rpl_parents
 .data.rpl_parents_struct
                0x00001cb0        0xa contiki-wismote.a(rpl-dag.o)
 .data.dao_sequence
                0x00001cba        0x1 contiki-wismote.a(rpl-icmp6.o)
 *fill*         0x00001cbb        0x1 00
 .data.dis_handler
                0x00001cbc        0x8 contiki-wismote.a(rpl-icmp6.o)
 .data.dio_handler
                0x00001cc4        0x8 contiki-wismote.a(rpl-icmp6.o)
 .data.dao_handler
                0x00001ccc        0x8 contiki-wismote.a(rpl-icmp6.o)
 .data.dao_ack_handler
                0x00001cd4        0x8 contiki-wismote.a(rpl-icmp6.o)
 .data.rpl_mrhof
                0x00001cdc       0x22 contiki-wismote.a(rpl-mrhof.o)
                0x00001cdc                rpl_mrhof
 .data.link_stats_struct
                0x00001cfe        0xa contiki-wismote.a(link-stats.o)
 .data.neighbor_addr_mem
                0x00001d08        0x8 contiki-wismote.a(nbr-table.o)
 .data.buframmem
                0x00001d10        0x8 contiki-wismote.a(queuebuf.o)
 .data.bufmem   0x00001d18        0x8 contiki-wismote.a(queuebuf.o)
 .data.neighbor_memb
                0x00001d20        0x8 contiki-wismote.a(csma.o)
 .data.packet_memb
                0x00001d28        0x8 contiki-wismote.a(csma.o)
 .data.metadata_memb
                0x00001d30        0x8 contiki-wismote.a(csma.o)
 .data.mac_pan_id
                0x00001d38        0x2 contiki-wismote.a(frame802154.o)
 .data.next     0x00001d3a        0x4 /home/anagha/Downloads/msp430-47/bin/../lib/gcc/msp430/4.7.0/../../../../msp430/lib/mcpu-430x/mmpy-16/msr20/mc20/libc.a(rand.o)
 *(.near.data .near.data.*)
                0x00001d3e                . = ALIGN (0x2)
                0x00001d3e                _edata = .
                0x0000fe42                __data_load_start = LOADADDR (.data)
                0x0000013e                __data_size = SIZEOF (.data)

.bss            0x00001d3e     0x25d4 load address 0x0000ff80
                0x00001d3e                __bss_start = .
 *(.bss .bss.*)
 .bss.prefix_set
                0x00001d3e        0x1 border-router.co
 *fill*         0x00001d3f        0x1 00
 .bss.et.5241   0x00001d40        0xc border-router.co
 .bss.blen      0x00001d4c        0x2 border-router.co
 .bss.buf       0x00001d4e      0x100 border-router.co
 .bss.nbr.5202  0x00001e4e        0x2 border-router.co
 .bss.r.5201    0x00001e50        0x2 border-router.co
 .bss.prefix    0x00001e52       0x10 border-router.co
 .bss.debug_frame.3422
                0x00001e62        0x1 obj_wismote/slip-bridge.o
 *fill*         0x00001e63        0x1 00
 .bss.last_sender
                0x00001e64       0x10 obj_wismote/slip-bridge.o
 .bss.conns_memb_count
                0x00001e74        0x2 obj_wismote/httpd-simple.o
 .bss.conns_memb_mem
                0x00001e76       0xb0 obj_wismote/httpd-simple.o
 .bss.irq_energest.4403
                0x00001f26        0x4 obj_wismote/contiki-wismote-main.o
 .bss.debouncetimer
                0x00001f2a        0x8 contiki-wismote.a(button-sensor.o)
 .bss.node_id   0x00001f32        0x2 contiki-wismote.a(node-id.o)
                0x00001f32                node_id
 .bss.num_sensors
                0x00001f34        0x1 contiki-wismote.a(sensors.o)
 *fill*         0x00001f35        0x1 00
 .bss.i.2444    0x00001f36        0x2 contiki-wismote.a(sensors.o)
 .bss.events.2445
                0x00001f38        0x2 contiki-wismote.a(sensors.o)
 .bss.last_packet_timestamp
                0x00001f3a        0x2 contiki-wismote.a(cc2520.o)
 .bss.receive_on
                0x00001f3c        0x1 contiki-wismote.a(cc2520.o)
 .bss.locked    0x00001f3d        0x1 contiki-wismote.a(cc2520.o)
 .bss.lock_off  0x00001f3e        0x1 contiki-wismote.a(cc2520.o)
 .bss.lock_on   0x00001f3f        0x1 contiki-wismote.a(cc2520.o)
 .bss.channel   0x00001f40        0x2 contiki-wismote.a(cc2520.o)
 .bss.transmitting
                0x00001f42        0x1 contiki-wismote.a(uart1.o)
 *fill*         0x00001f43        0x1 00
 .bss.uart1_input_handler
                0x00001f44        0x4 contiki-wismote.a(uart1.o)
 .bss.input_callback
                0x00001f48        0x4 contiki-wismote.a(slip.o)
 .bss.state     0x00001f4c        0x1 contiki-wismote.a(slip.o)
 *fill*         0x00001f4d        0x1 00
 .bss.pkt_end   0x00001f4e        0x2 contiki-wismote.a(slip.o)
 .bss.next_free
                0x00001f50        0x2 contiki-wismote.a(slip.o)
 .bss.begin     0x00001f52        0x2 contiki-wismote.a(slip.o)
 .bss.rxbuf     0x00001f54      0x100 contiki-wismote.a(slip.o)
 .bss.last_tar  0x00002054        0x2 contiki-wismote.a(clock.o)
 .bss.count     0x00002056        0x4 contiki-wismote.a(clock.o)
 .bss.seconds   0x0000205a        0x4 contiki-wismote.a(clock.o)
 .bss.leds      0x0000205e        0x1 contiki-wismote.a(leds.o)
 *fill*         0x0000205f        0x1 00
 .bss.counter   0x00002060        0x2 contiki-wismote.a(watchdog.o)
 .bss.initialized
                0x00002062        0x1 contiki-wismote.a(ctimer.o)
 *fill*         0x00002063        0x1 00
 .bss.ctimer_list_list
                0x00002064        0x2 contiki-wismote.a(ctimer.o)
 .bss.timerlist
                0x00002066        0x2 contiki-wismote.a(etimer.o)
 .bss.next_expiration
                0x00002068        0x4 contiki-wismote.a(etimer.o)
 .bss.poll_requested
                0x0000206c        0x1 contiki-wismote.a(process.o)
 *fill*         0x0000206d        0x1 00
 .bss.process_current
                0x0000206e        0x2 contiki-wismote.a(process.o)
                0x0000206e                process_current
 .bss.process_list
                0x00002070        0x2 contiki-wismote.a(process.o)
                0x00002070                process_list
 .bss.lastevent
                0x00002072        0x1 contiki-wismote.a(process.o)
 .bss.fevent    0x00002073        0x1 contiki-wismote.a(process.o)
 .bss.nevents   0x00002074        0x1 contiki-wismote.a(process.o)
 *fill*         0x00002075        0x1 00
 .bss.events    0x00002076       0x30 contiki-wismote.a(process.o)
 .bss.next_rtimer
                0x000020a6        0x2 contiki-wismote.a(rtimer.o)
 .bss.callback  0x000020a8        0x2 contiki-wismote.a(sicslowpan.o)
 .bss.addr_contexts
                0x000020aa       0x14 contiki-wismote.a(sicslowpan.o)
 .bss.uncomp_hdr_len
                0x000020be        0x1 contiki-wismote.a(sicslowpan.o)
 .bss.packetbuf_hdr_len
                0x000020bf        0x1 contiki-wismote.a(sicslowpan.o)
 .bss.packetbuf_ptr
                0x000020c0        0x2 contiki-wismote.a(sicslowpan.o)
 .bss.last_tx_status
                0x000020c2        0x2 contiki-wismote.a(sicslowpan.o)
 .bss.my_tag    0x000020c4        0x2 contiki-wismote.a(sicslowpan.o)
 .bss.packetbuf_payload_len
                0x000020c6        0x2 contiki-wismote.a(sicslowpan.o)
 .bss.hc06_ptr  0x000020c8        0x2 contiki-wismote.a(sicslowpan.o)
 .bss.context   0x000020ca        0x2 contiki-wismote.a(sicslowpan.o)
 .bss.last_rssi
                0x000020cc        0x2 contiki-wismote.a(sicslowpan.o)
 .bss.frag_info
                0x000020ce      0x168 contiki-wismote.a(sicslowpan.o)
 .bss.frag_buf  0x00002236      0x558 contiki-wismote.a(sicslowpan.o)
 .bss.uip_ext_opt_offset
                0x0000278e        0x1 contiki-wismote.a(uip6.o)
                0x0000278e                uip_ext_opt_offset
 .bss.uip_ext_len
                0x0000278f        0x1 contiki-wismote.a(uip6.o)
                0x0000278f                uip_ext_len
 .bss.uip_ext_bitmap
                0x00002790        0x1 contiki-wismote.a(uip6.o)
                0x00002790                uip_ext_bitmap
 *fill*         0x00002791        0x1 00
 .bss.lastport  0x00002792        0x2 contiki-wismote.a(uip6.o)
 .bss.iss       0x00002794        0x4 contiki-wismote.a(uip6.o)
 .bss.loc_fipaddr
                0x00002798       0x10 contiki-wismote.a(uip-ds6.o)
 .bss.locaddr   0x000027a8        0x2 contiki-wismote.a(uip-ds6.o)
 .bss.locprefix
                0x000027aa        0x2 contiki-wismote.a(uip-ds6.o)
 .bss.locmaddr  0x000027ac        0x2 contiki-wismote.a(uip-ds6.o)
 .bss._ds6_neighbors_mem
                0x000027ae      0x21c contiki-wismote.a(uip-ds6-nbr.o)
 .bss.notificationlist_list
                0x000029ca        0x2 contiki-wismote.a(uip-ds6-route.o)
 .bss.defaultrouterlist_list
                0x000029cc        0x2 contiki-wismote.a(uip-ds6-route.o)
 .bss.routelist_list
                0x000029ce        0x2 contiki-wismote.a(uip-ds6-route.o)
 .bss.num_routes
                0x000029d0        0x2 contiki-wismote.a(uip-ds6-route.o)
 .bss.routememb_memb_count
                0x000029d2       0x1e contiki-wismote.a(uip-ds6-route.o)
 .bss.routememb_memb_mem
                0x000029f0      0x3fc contiki-wismote.a(uip-ds6-route.o)
 .bss.defaultroutermemb_memb_count
                0x00002dec        0x2 contiki-wismote.a(uip-ds6-route.o)
 .bss.defaultroutermemb_memb_mem
                0x00002dee       0x38 contiki-wismote.a(uip-ds6-route.o)
 .bss.neighborroutememb_memb_count
                0x00002e26       0x1e contiki-wismote.a(uip-ds6-route.o)
 .bss.neighborroutememb_memb_mem
                0x00002e44       0x78 contiki-wismote.a(uip-ds6-route.o)
 .bss._nbr_routes_mem
                0x00002ebc       0x78 contiki-wismote.a(uip-ds6-route.o)
 .bss.input_handler_list_list
                0x00002f34        0x2 contiki-wismote.a(uip-icmp6.o)
 .bss.tmp_ipaddr
                0x00002f36       0x10 contiki-wismote.a(uip-icmp6.o)
 .bss.echo_reply_callback_list_list
                0x00002f46        0x2 contiki-wismote.a(uip-icmp6.o)
 .bss.outputfunc
                0x00002f48        0x4 contiki-wismote.a(tcpip.o)
 .bss.s         0x00002f4c       0x22 contiki-wismote.a(tcpip.o)
 .bss.periodic  0x00002f6e        0xc contiki-wismote.a(tcpip.o)
 .bss.locaddr   0x00002f7a        0x2 contiki-wismote.a(tcpip.o)
 .bss.prefix    0x00002f7c       0x10 contiki-wismote.a(tcpip.o)
 .bss.mode      0x00002f8c        0x2 contiki-wismote.a(rpl.o)
 .bss.locaddr.4130
                0x00002f8e        0x2 contiki-wismote.a(rpl-dag.o)
 .bss.prefix.4132
                0x00002f90       0x10 contiki-wismote.a(rpl-dag.o)
 .bss.locaddr.4180
                0x00002fa0        0x2 contiki-wismote.a(rpl-dag.o)
 .bss._rpl_parents_mem
                0x00002fa2       0xb4 contiki-wismote.a(rpl-dag.o)
 .bss.next_dis  0x00003056        0x2 contiki-wismote.a(rpl-timers.o)
 .bss.periodic_timer
                0x00003058       0x16 contiki-wismote.a(rpl-timers.o)
 .bss.dio_send_ok
                0x0000306e        0x1 contiki-wismote.a(rpl-timers.o)
 *fill*         0x0000306f        0x1 00
 .bss._link_stats_mem
                0x00003070      0x12c contiki-wismote.a(link-stats.o)
 .bss.num_tables
                0x0000319c        0x2 contiki-wismote.a(nbr-table.o)
 .bss.all_tables
                0x0000319e       0x10 contiki-wismote.a(nbr-table.o)
 .bss.used_map  0x000031ae       0x1e contiki-wismote.a(nbr-table.o)
 .bss.nbr_table_keys_list
                0x000031cc        0x2 contiki-wismote.a(nbr-table.o)
 .bss.locked_map
                0x000031ce       0x1e contiki-wismote.a(nbr-table.o)
 .bss.neighbor_addr_mem_memb_count
                0x000031ec       0x1e contiki-wismote.a(nbr-table.o)
 .bss.neighbor_addr_mem_memb_mem
                0x0000320a      0x12c contiki-wismote.a(nbr-table.o)
 .bss.bufptr    0x00003336        0x2 contiki-wismote.a(packetbuf.o)
 .bss.buflen    0x00003338        0x2 contiki-wismote.a(packetbuf.o)
 .bss.hdrlen    0x0000333a        0x1 contiki-wismote.a(packetbuf.o)
 *fill*         0x0000333b        0x1 00
 .bss.packetbuf_aligned
                0x0000333c       0x80 contiki-wismote.a(packetbuf.o)
 .bss.buframmem_memb_count
                0x000033bc        0x8 contiki-wismote.a(queuebuf.o)
 .bss.buframmem_memb_mem
                0x000033c4      0x580 contiki-wismote.a(queuebuf.o)
 .bss.bufmem_memb_count
                0x00003944        0x8 contiki-wismote.a(queuebuf.o)
 .bss.bufmem_memb_mem
                0x0000394c       0x10 contiki-wismote.a(queuebuf.o)
 .bss.initialized.3250
                0x0000395c        0x1 contiki-wismote.a(csma.o)
 *fill*         0x0000395d        0x1 00
 .bss.seqno.3251
                0x0000395e        0x2 contiki-wismote.a(csma.o)
 .bss.neighbor_list_list
                0x00003960        0x2 contiki-wismote.a(csma.o)
 .bss.neighbor_memb_memb_count
                0x00003962        0x2 contiki-wismote.a(csma.o)
 .bss.neighbor_memb_memb_mem
                0x00003964       0x4c contiki-wismote.a(csma.o)
 .bss.packet_memb_memb_count
                0x000039b0        0x8 contiki-wismote.a(csma.o)
 .bss.packet_memb_memb_mem
                0x000039b8       0x30 contiki-wismote.a(csma.o)
 .bss.metadata_memb_memb_count
                0x000039e8        0x8 contiki-wismote.a(csma.o)
 .bss.metadata_memb_memb_mem
                0x000039f0       0x40 contiki-wismote.a(csma.o)
 .bss.initialized
                0x00003a30        0x1 contiki-wismote.a(framer-802154.o)
 .bss.mac_dsn   0x00003a31        0x1 contiki-wismote.a(framer-802154.o)
 .bss.num_children
                0x00003a32        0x2 contiki-wismote.a(rpl-nbr-policy.)
 .bss.worst_rank_nbr
                0x00003a34        0x2 contiki-wismote.a(rpl-nbr-policy.)
 .bss.timer_init
                0x00003a36        0x2 contiki-wismote.a(rpl-nbr-policy.)
 .bss.periodic_timer
                0x00003a38       0x16 contiki-wismote.a(rpl-nbr-policy.)
 .bss.worst_rank
                0x00003a4e        0x2 contiki-wismote.a(rpl-nbr-policy.)
 .bss.num_parents
                0x00003a50        0x2 contiki-wismote.a(rpl-nbr-policy.)
 .bss.num_free  0x00003a52        0x2 contiki-wismote.a(rpl-nbr-policy.)
 .bss.received_seqnos
                0x00003a54       0xe0 contiki-wismote.a(mac-sequence.o)
 .bss.destination_
                0x00003b34        0x2 /home/anagha/Downloads/msp430-47/bin/../lib/gcc/msp430/4.7.0/../../../../msp430/lib/mcpu-430x/mmpy-16/msr20/mc20/libc.a(sprintf.o)
 .bss.available_
                0x00003b36        0x2 /home/anagha/Downloads/msp430-47/bin/../lib/gcc/msp430/4.7.0/../../../../msp430/lib/mcpu-430x/mmpy-16/msr20/mc20/libc.a(sprintf.o)
 *(.near.bss .near.bss.*)
 *(COMMON)
 COMMON         0x00003b38        0x2 contiki-wismote.a(contiki-wismote)
                0x00003b38                sensors_flags
 COMMON         0x00003b3a        0x1 contiki-wismote.a(sensors.o)
                0x00003b3a                sensors_event
 *fill*         0x00003b3b        0x1 00
 COMMON         0x00003b3c       0x13 contiki-wismote.a(cc2520.o)
                0x00003b3c                cc2520_sfd_counter
                0x00003b3e                cc2520_sfd_start_time
                0x00003b40                cc2520_sfd_end_time
                0x00003b42                cc2520_time_of_departure
                0x00003b44                cc2520_packets_seen
                0x00003b46                cc2520_packets_read
                0x00003b48                cc2520_last_rssi
                0x00003b4a                cc2520_time_of_arrival
                0x00003b4c                cc2520_authority_level_of_sender
                0x00003b4e                cc2520_last_correlation
 COMMON         0x00003b4f        0x1 contiki-wismote.a(slip.o)
                0x00003b4f                slip_active
 COMMON         0x00003b50        0x2 contiki-wismote.a(msp430.o)
                0x00003b50                msp430_dco_required
 COMMON         0x00003b52       0x56 contiki-wismote.a(energest.o)
                0x00003b52                energest_total_time
                0x00003b82                energest_total_count
                0x00003b84                energest_current_mode
                0x00003b90                energest_current_time
 COMMON         0x00003ba8        0x1 contiki-wismote.a(process.o)
                0x00003ba8                process_maxevents
 *fill*         0x00003ba9        0x1 00
 COMMON         0x00003baa      0x304 contiki-wismote.a(uip6.o)
                0x00003baa                uip_len
                0x00003bac                uip_sappdata
                0x00003bae                uip_acc32
                0x00003bb2                uip_lladdr
                0x00003bba                uip_aligned_buf
                0x00003caa                uip_flags
                0x00003cac                uip_next_hdr
                0x00003cae                uip_udp_conn
                0x00003cb0                uip_appdata
                0x00003cb2                uip_conn
                0x00003cb4                uip_conns
                0x00003d64                uip_listenports
                0x00003d74                uip_slen
                0x00003d76                uip_udp_conns
 COMMON         0x00003eae      0x15c contiki-wismote.a(uip-ds6.o)
                0x00003eae                uip_ds6_timer_ra
                0x00003eb6                uip_ds6_if
                0x00003fa2                uip_ds6_netif_addr_list_offset
                0x00003fa3                uip_ds6_addr_size
                0x00003fa4                uip_ds6_prefix_list
                0x00003ffe                uip_ds6_timer_periodic
 COMMON         0x0000400a        0x1 contiki-wismote.a(tcpip.o)
                0x0000400a                tcpip_event
 *fill*         0x0000400b        0x1 00
 COMMON         0x0000400c      0x2ba contiki-wismote.a(rpl-dag.o)
                0x0000400c                default_instance
                0x0000400e                instance_table
 COMMON         0x000042c6        0x8 contiki-wismote.a(linkaddr.o)
                0x000042c6                linkaddr_node_addr
 COMMON         0x000042ce       0x16 contiki-wismote.a(link-stats.o)
                0x000042ce                periodic_timer
 COMMON         0x000042e4       0x2e contiki-wismote.a(packetbuf.o)
                0x000042e4                packetbuf_addrs
                0x000042f4                packetbuf_attrs
                0x00004312                . = ALIGN (0x2)
                0x00004312                __bss_end = .
                0x000025d4                __bss_size = SIZEOF (.bss)

.noinit         0x00004312        0x2 load address 0x0000ff80
                0x00004312                . = ALIGN (0x2)
                0x00004312                __noinit_start = .
 *(.noinit .noinit.*)
 .noinit.crt0   0x00004312        0x2 /home/anagha/Downloads/msp430-47/bin/../lib/gcc/msp430/4.7.0/mcpu-430x/mmpy-16/msr20/mc20/libcrt0.a(__watchdog_support.o)
                0x00004312                __wdt_clear_value
                0x00004314                . = ALIGN (0x2)
                0x00004314                __noinit_end = .
                0x00004314                . = ALIGN (0x2)
                0x00004314                _end = .

.infomem        0x00001800        0x0
                0x00001800                . = ALIGN (0x2)
 *(.infomem .infomem.*)

.infomemnobits  0x00001800        0x0
                0x00001800                . = ALIGN (0x2)
 *(.infomemnobits .infomemnobits.*)

.infoa          0x00001980        0x0
                0x00001980                . = ALIGN (0x2)
 *(.infoa .infoa.*)

.infob          0x00001900        0x0
                0x00001900                . = ALIGN (0x2)
 *(.infob .infob.*)

.infoc          0x00001880        0x0
                0x00001880                . = ALIGN (0x2)
 *(.infoc .infoc.*)

.infod          0x00001800        0x0
                0x00001800                . = ALIGN (0x2)
 *(.infod .infod.*)

.vectors        0x0000ff80       0x80
                0x0000ff80                __vectors_start = .
 *(.vectors*)
 .vectors       0x0000ff80       0x80 /home/anagha/Downloads/msp430-47/bin/../lib/gcc/msp430/4.7.0/mcpu-430x/mmpy-16/msr20/mc20/crt0ivtbl64.o
                0x0000ff80                __ivtbl_64
                0x00010000                _vectors_end = .

.fartext        0x00010000        0x0
                0x00010000                . = ALIGN (0x2)
 *(.fartext .fartext.*)

.far.text       0x00010000     0x484a
                0x00010000                . = ALIGN (0x2)
 *(.far.text .far.text.*)
 .any.text.rpl_set_default_route
                0x00010000       0x70 contiki-wismote.a(rpl-dag.o)
                0x00010000                rpl_set_default_route
 .any.text.rpl_add_parent
                0x00010070       0x66 contiki-wismote.a(rpl-dag.o)
                0x00010070                rpl_add_parent
 .any.text.rpl_find_parent
                0x000100d6       0x1a contiki-wismote.a(rpl-dag.o)
                0x000100d6                rpl_find_parent
 .any.text.rpl_find_parent_any_dag
                0x000100f0       0x22 contiki-wismote.a(rpl-dag.o)
                0x000100f0                rpl_find_parent_any_dag
 .any.text.rpl_select_parent
                0x00010112       0x62 contiki-wismote.a(rpl-dag.o)
                0x00010112                rpl_select_parent
 .any.text.rpl_select_dag
                0x00010174      0x1e4 contiki-wismote.a(rpl-dag.o)
                0x00010174                rpl_select_dag
 .any.text.rpl_nullify_parent
                0x00010358       0x9a contiki-wismote.a(rpl-dag.o)
                0x00010358                rpl_nullify_parent
 .any.text.rpl_remove_parent
                0x000103f2       0x34 contiki-wismote.a(rpl-dag.o)
                0x000103f2                rpl_remove_parent
 .any.text.remove_parents.constprop.5
                0x00010426       0x38 contiki-wismote.a(rpl-dag.o)
 .any.text.rpl_free_dag
                0x0001045e       0x5c contiki-wismote.a(rpl-dag.o)
                0x0001045e                rpl_free_dag
 .any.text.rpl_move_parent
                0x000104ba       0xa6 contiki-wismote.a(rpl-dag.o)
                0x000104ba                rpl_move_parent
 .any.text.rpl_get_any_dag
                0x00010560       0x22 contiki-wismote.a(rpl-dag.o)
                0x00010560                rpl_get_any_dag
 .any.text.rpl_get_instance
                0x00010582       0x54 contiki-wismote.a(rpl-dag.o)
                0x00010582                rpl_get_instance
 .any.text.get_dag
                0x000105d6       0x48 contiki-wismote.a(rpl-dag.o)
 .any.text.rpl_alloc_dag
                0x0001061e       0x64 contiki-wismote.a(rpl-dag.o)
                0x0001061e                rpl_alloc_dag
 .any.text.rpl_repair_root
                0x00010682       0x70 contiki-wismote.a(rpl-dag.o)
                0x00010682                rpl_repair_root
 .any.text.rpl_find_of
                0x000106f2       0x10 contiki-wismote.a(rpl-dag.o)
                0x000106f2                rpl_find_of
 .any.text.rpl_set_root_ptop
                0x00010702      0x212 contiki-wismote.a(rpl-dag.o)
                0x00010702                rpl_set_root_ptop
 .any.text.rpl_set_root
                0x00010914      0x16c contiki-wismote.a(rpl-dag.o)
                0x00010914                rpl_set_root
 .any.text.rpl_join_instance
                0x00010a80      0x3f2 contiki-wismote.a(rpl-dag.o)
                0x00010a80                rpl_join_instance
 .any.text.rpl_local_repair
                0x00010e72       0x82 contiki-wismote.a(rpl-dag.o)
                0x00010e72                rpl_local_repair
 .any.text.rpl_process_parent_event
                0x00010ef4      0x188 contiki-wismote.a(rpl-dag.o)
                0x00010ef4                rpl_process_parent_event
 .any.text.global_repair
                0x0001107c       0xc6 contiki-wismote.a(rpl-dag.o)
 .any.text.rpl_recalculate_ranks
                0x00011142       0x5a contiki-wismote.a(rpl-dag.o)
                0x00011142                rpl_recalculate_ranks
 .any.text.rpl_process_dio
                0x0001119c      0x3b8 contiki-wismote.a(rpl-dag.o)
                0x0001119c                rpl_process_dio
 .any.text.rpl_process_dio_ptop
                0x00011554      0x148 contiki-wismote.a(rpl-dag.o)
                0x00011554                rpl_process_dio_ptop
 .any.text.update_hbh_header
                0x0001169c       0xcc contiki-wismote.a(rpl-ext-header.)
 .any.text.insert_hbh_header
                0x00011768       0x94 contiki-wismote.a(rpl-ext-header.)
 .any.text.rpl_verify_hbh_header
                0x000117fc       0xf4 contiki-wismote.a(rpl-ext-header.)
                0x000117fc                rpl_verify_hbh_header
 .any.text.rpl_remove_header
                0x000118f0       0x76 contiki-wismote.a(rpl-ext-header.)
                0x000118f0                rpl_remove_header
 .any.text.rpl_update_header
                0x00011966       0x54 contiki-wismote.a(rpl-ext-header.)
                0x00011966                rpl_update_header
 .any.text.get32
                0x000119ba       0x3e contiki-wismote.a(rpl-icmp6.o)
 .any.text.set32
                0x000119f8       0x2a contiki-wismote.a(rpl-icmp6.o)
 .any.text.set16
                0x00011a22       0x10 contiki-wismote.a(rpl-icmp6.o)
 .any.text.dao_ack_input
                0x00011a32        0xa contiki-wismote.a(rpl-icmp6.o)
 .any.text.is_link_asym
                0x00011a3c       0x74 contiki-wismote.a(rpl-icmp6.o)
                0x00011a3c                is_link_asym
 .any.text.dio_input
                0x00011ab0      0x472 contiki-wismote.a(rpl-icmp6.o)
 .any.text.rpl_icmp6_update_nbr_table
                0x00011f22       0x5c contiki-wismote.a(rpl-icmp6.o)
                0x00011f22                rpl_icmp6_update_nbr_table
 .any.text.dao_input
                0x00011f7e      0x454 contiki-wismote.a(rpl-icmp6.o)
 .any.text.dis_output
                0x000123d2       0x70 contiki-wismote.a(rpl-icmp6.o)
                0x000123d2                dis_output
 .any.text.dio_output
                0x00012442      0x37a contiki-wismote.a(rpl-icmp6.o)
                0x00012442                dio_output
 .any.text.dis_input
                0x000127bc       0xa6 contiki-wismote.a(rpl-icmp6.o)
 .any.text.dao_output_target
                0x00012862      0x15c contiki-wismote.a(rpl-icmp6.o)
                0x00012862                dao_output_target
 .any.text.dao_output
                0x000129be       0xa8 contiki-wismote.a(rpl-icmp6.o)
                0x000129be                dao_output
 .any.text.rpl_icmp6_register_handlers
                0x00012a66       0x22 contiki-wismote.a(rpl-icmp6.o)
                0x00012a66                rpl_icmp6_register_handlers
 .any.text.reset
                0x00012a88        0x2 contiki-wismote.a(rpl-mrhof.o)
 .any.text.update_metric_container
                0x00012a8a        0x6 contiki-wismote.a(rpl-mrhof.o)
 .any.text.parent_link_metric
                0x00012a90       0x10 contiki-wismote.a(rpl-mrhof.o)
 .any.text.parent_has_usable_link
                0x00012aa0       0x14 contiki-wismote.a(rpl-mrhof.o)
 .any.text.best_dag
                0x00012ab4       0x2e contiki-wismote.a(rpl-mrhof.o)
 .any.text.parent_path_cost
                0x00012ae2       0x40 contiki-wismote.a(rpl-mrhof.o)
 .any.text.parent_is_acceptable
                0x00012b22       0x2a contiki-wismote.a(rpl-mrhof.o)
 .any.text.rank_via_parent
                0x00012b4c       0x4e contiki-wismote.a(rpl-mrhof.o)
 .any.text.best_parent
                0x00012b9a       0x76 contiki-wismote.a(rpl-mrhof.o)
 .any.text.handle_unicast_dio_timer
                0x00012c10       0x1c contiki-wismote.a(rpl-timers.o)
 .any.text.new_dio_interval
                0x00012c2c       0x9e contiki-wismote.a(rpl-timers.o)
 .any.text.set_dao_lifetime_timer
                0x00012cca       0x84 contiki-wismote.a(rpl-timers.o)
 .any.text.handle_periodic_timer
                0x00012d4e       0x50 contiki-wismote.a(rpl-timers.o)
 .any.text.schedule_dao
                0x00012d9e       0x72 contiki-wismote.a(rpl-timers.o)
 .any.text.handle_dao_timer
                0x00012e10       0x64 contiki-wismote.a(rpl-timers.o)
 .any.text.handle_dio_timer
                0x00012e74       0xac contiki-wismote.a(rpl-timers.o)
 .any.text.rpl_reset_periodic_timer
                0x00012f20       0x46 contiki-wismote.a(rpl-timers.o)
                0x00012f20                rpl_reset_periodic_timer
 .any.text.rpl_reset_dio_timer
                0x00012f66       0x18 contiki-wismote.a(rpl-timers.o)
                0x00012f66                rpl_reset_dio_timer
 .any.text.rpl_schedule_dao
                0x00012f7e        0xc contiki-wismote.a(rpl-timers.o)
                0x00012f7e                rpl_schedule_dao
 .any.text.rpl_schedule_unicast_dio_immediately
                0x00012f8a       0x16 contiki-wismote.a(rpl-timers.o)
                0x00012f8a                rpl_schedule_unicast_dio_immediately
 .any.text.get_probing_delay
                0x00012fa0       0x88 contiki-wismote.a(rpl-timers.o)
                0x00012fa0                get_probing_delay
 .any.text.get_probing_target
                0x00013028       0xe2 contiki-wismote.a(rpl-timers.o)
                0x00013028                get_probing_target
 .any.text.rpl_schedule_probing
                0x0001310a       0x26 contiki-wismote.a(rpl-timers.o)
                0x0001310a                rpl_schedule_probing
 .any.text.handle_probing_timer
                0x00013130       0x34 contiki-wismote.a(rpl-timers.o)
 .any.text.linkaddr_copy
                0x00013164        0x8 contiki-wismote.a(linkaddr.o)
                0x00013164                linkaddr_copy
 .any.text.linkaddr_cmp
                0x0001316c       0x12 contiki-wismote.a(linkaddr.o)
                0x0001316c                linkaddr_cmp
 .any.text.linkaddr_set_node_addr
                0x0001317e        0xc contiki-wismote.a(linkaddr.o)
                0x0001317e                linkaddr_set_node_addr
 .any.text.periodic
                0x0001318a       0x2c contiki-wismote.a(link-stats.o)
 .any.text.link_stats_from_lladdr
                0x000131b6        0xc contiki-wismote.a(link-stats.o)
                0x000131b6                link_stats_from_lladdr
 .any.text.link_stats_is_fresh
                0x000131c2       0x32 contiki-wismote.a(link-stats.o)
                0x000131c2                link_stats_is_fresh
 .any.text.link_stats_packet_sent
                0x000131f4       0xde contiki-wismote.a(link-stats.o)
                0x000131f4                link_stats_packet_sent
 .any.text.link_stats_input_callback
                0x000132d2       0x84 contiki-wismote.a(link-stats.o)
                0x000132d2                link_stats_input_callback
 .any.text.link_stats_init
                0x00013356       0x22 contiki-wismote.a(link-stats.o)
                0x00013356                link_stats_init
 .any.text.key_from_index
                0x00013378       0x18 contiki-wismote.a(nbr-table.o)
 .any.text.item_from_index
                0x00013390       0x2a contiki-wismote.a(nbr-table.o)
 .any.text.index_from_key
                0x000133ba       0x26 contiki-wismote.a(nbr-table.o)
 .any.text.index_from_item
                0x000133e0       0x1e contiki-wismote.a(nbr-table.o)
 .any.text.nbr_set_bit
                0x000133fe       0x50 contiki-wismote.a(nbr-table.o)
 .any.text.index_from_lladdr
                0x0001344e       0x3e contiki-wismote.a(nbr-table.o)
 .any.text.nbr_get_bit.constprop.0
                0x0001348c       0x2c contiki-wismote.a(nbr-table.o)
 .any.text.remove_key
                0x000134b8       0x56 contiki-wismote.a(nbr-table.o)
 .any.text.nbr_table_register
                0x0001350e       0x26 contiki-wismote.a(nbr-table.o)
                0x0001350e                nbr_table_register
 .any.text.nbr_table_next
                0x00013534       0x3a contiki-wismote.a(nbr-table.o)
                0x00013534                nbr_table_next
 .any.text.nbr_table_head
                0x0001356e       0x36 contiki-wismote.a(nbr-table.o)
                0x0001356e                nbr_table_head
 .any.text.nbr_table_add_lladdr
                0x000135a4       0xfc contiki-wismote.a(nbr-table.o)
                0x000135a4                nbr_table_add_lladdr
 .any.text.nbr_table_get_from_lladdr
                0x000136a0       0x28 contiki-wismote.a(nbr-table.o)
                0x000136a0                nbr_table_get_from_lladdr
 .any.text.nbr_table_remove
                0x000136c8       0x2a contiki-wismote.a(nbr-table.o)
                0x000136c8                nbr_table_remove
 .any.text.nbr_table_lock
                0x000136f2       0x10 contiki-wismote.a(nbr-table.o)
                0x000136f2                nbr_table_lock
 .any.text.nbr_table_unlock
                0x00013702       0x10 contiki-wismote.a(nbr-table.o)
                0x00013702                nbr_table_unlock
 .any.text.nbr_table_get_lladdr
                0x00013712       0x14 contiki-wismote.a(nbr-table.o)
                0x00013712                nbr_table_get_lladdr
 .any.text.net_debug_lladdr_print
                0x00013726       0x3c contiki-wismote.a(net-debug.o)
                0x00013726                net_debug_lladdr_print
 .any.text.packetbuf_hdrreduce
                0x00013762       0x1a contiki-wismote.a(packetbuf.o)
                0x00013762                packetbuf_hdrreduce
 .any.text.packetbuf_set_datalen
                0x0001377c        0x6 contiki-wismote.a(packetbuf.o)
                0x0001377c                packetbuf_set_datalen
 .any.text.packetbuf_hdrptr
                0x00013782        0x6 contiki-wismote.a(packetbuf.o)
                0x00013782                packetbuf_hdrptr
 .any.text.packetbuf_datalen
                0x00013788        0x6 contiki-wismote.a(packetbuf.o)
                0x00013788                packetbuf_datalen
 .any.text.packetbuf_hdrlen
                0x0001378e        0xa contiki-wismote.a(packetbuf.o)
                0x0001378e                packetbuf_hdrlen
 .any.text.packetbuf_dataptr
                0x00013798        0xc contiki-wismote.a(packetbuf.o)
                0x00013798                packetbuf_dataptr
 .any.text.packetbuf_copyto
                0x000137a4       0x3a contiki-wismote.a(packetbuf.o)
                0x000137a4                packetbuf_copyto
 .any.text.packetbuf_totlen
                0x000137de        0xc contiki-wismote.a(packetbuf.o)
                0x000137de                packetbuf_totlen
 .any.text.packetbuf_hdralloc
                0x000137ea       0x3c contiki-wismote.a(packetbuf.o)
                0x000137ea                packetbuf_hdralloc
 .any.text.packetbuf_attr_clear
                0x00013826       0x28 contiki-wismote.a(packetbuf.o)
                0x00013826                packetbuf_attr_clear
 .any.text.packetbuf_clear
                0x0001384e       0x12 contiki-wismote.a(packetbuf.o)
                0x0001384e                packetbuf_clear
 .any.text.packetbuf_copyfrom
                0x00013860       0x2a contiki-wismote.a(packetbuf.o)
                0x00013860                packetbuf_copyfrom
 .any.text.packetbuf_attr_copyto
                0x0001388a       0x22 contiki-wismote.a(packetbuf.o)
                0x0001388a                packetbuf_attr_copyto
 .any.text.packetbuf_attr_copyfrom
                0x000138ac       0x24 contiki-wismote.a(packetbuf.o)
                0x000138ac                packetbuf_attr_copyfrom
 .any.text.packetbuf_holds_broadcast
                0x000138d0        0xe contiki-wismote.a(packetbuf.o)
                0x000138d0                packetbuf_holds_broadcast
 .any.text.queuebuf_init
                0x000138de       0x12 contiki-wismote.a(queuebuf.o)
                0x000138de                queuebuf_init
 .any.text.queuebuf_numfree
                0x000138f0        0xa contiki-wismote.a(queuebuf.o)
                0x000138f0                queuebuf_numfree
 .any.text.queuebuf_new_from_packetbuf
                0x000138fa       0x4e contiki-wismote.a(queuebuf.o)
                0x000138fa                queuebuf_new_from_packetbuf
 .any.text.queuebuf_update_attr_from_packetbuf
                0x00013948       0x12 contiki-wismote.a(queuebuf.o)
                0x00013948                queuebuf_update_attr_from_packetbuf
 .any.text.queuebuf_free
                0x0001395a       0x2a contiki-wismote.a(queuebuf.o)
                0x0001395a                queuebuf_free
 .any.text.queuebuf_to_packetbuf
                0x00013984       0x32 contiki-wismote.a(queuebuf.o)
                0x00013984                queuebuf_to_packetbuf
 .any.text.queuebuf_attr
                0x000139b6        0xe contiki-wismote.a(queuebuf.o)
                0x000139b6                queuebuf_attr
 .any.text.input_packet
                0x000139c4        0x6 contiki-wismote.a(csma.o)
 .any.text.on   0x000139ca        0x6 contiki-wismote.a(csma.o)
 .any.text.off  0x000139d0        0x6 contiki-wismote.a(csma.o)
 .any.text.channel_check_interval
                0x000139d6       0x10 contiki-wismote.a(csma.o)
 .any.text.transmit_packet_list
                0x000139e6       0x24 contiki-wismote.a(csma.o)
 .any.text.schedule_transmission
                0x00013a0a       0x94 contiki-wismote.a(csma.o)
 .any.text.init
                0x00013a9e       0x1a contiki-wismote.a(csma.o)
 .any.text.tx_done
                0x00013ab8       0x84 contiki-wismote.a(csma.o)
 .any.text.send_packet
                0x00013b3c      0x158 contiki-wismote.a(csma.o)
 .any.text.packet_sent
                0x00013c94       0xca contiki-wismote.a(csma.o)
 .any.text.create_frame.isra.0
                0x00013d5e      0x114 contiki-wismote.a(framer-802154.o)
 .any.text.create
                0x00013e72        0x8 contiki-wismote.a(framer-802154.o)
 .any.text.hdr_length
                0x00013e7a        0x8 contiki-wismote.a(framer-802154.o)
 .any.text.parse
                0x00013e82       0x9a contiki-wismote.a(framer-802154.o)
 .any.text.mac_call_sent_callback
                0x00013f1c       0x14 contiki-wismote.a(mac.o)
                0x00013f1c                mac_call_sent_callback
 .any.text.on   0x00013f30        0x6 contiki-wismote.a(nullrdc.o)
 .any.text.channel_check_interval
                0x00013f36        0x4 contiki-wismote.a(nullrdc.o)
 .any.text.init
                0x00013f3a        0x6 contiki-wismote.a(nullrdc.o)
 .any.text.off  0x00013f40       0x10 contiki-wismote.a(nullrdc.o)
 .any.text.packet_input
                0x00013f50       0x40 contiki-wismote.a(nullrdc.o)
 .any.text.send_one_packet
                0x00013f90      0x114 contiki-wismote.a(nullrdc.o)
 .any.text.send_list
                0x000140a4       0x28 contiki-wismote.a(nullrdc.o)
 .any.text.send_packet
                0x000140cc        0x6 contiki-wismote.a(nullrdc.o)
 .any.text.init
                0x000140d2        0x2 contiki-wismote.a(nullsec.o)
 .any.text.send
                0x000140d4        0xa contiki-wismote.a(nullsec.o)
 .any.text.input
                0x000140de        0x6 contiki-wismote.a(nullsec.o)
 .any.text.spi_init
                0x000140e4       0x32 contiki-wismote.a(spi.o)
                0x000140e4                spi_init
 .any.text.stimer_set
                0x00014116       0x1c contiki-wismote.a(stimer.o)
                0x00014116                stimer_set
 .any.text.stimer_expired
                0x00014132       0x30 contiki-wismote.a(stimer.o)
                0x00014132                stimer_expired
 .any.text.update_nbr
                0x00014162       0xda contiki-wismote.a(rpl-nbr-policy.)
 .any.text.handle_periodic_timer
                0x0001423c        0xe contiki-wismote.a(rpl-nbr-policy.)
 .any.text.find_removable_dis
                0x0001424a       0x16 contiki-wismote.a(rpl-nbr-policy.)
                0x0001424a                find_removable_dis
 .any.text.find_removable_dio
                0x00014260       0x3c contiki-wismote.a(rpl-nbr-policy.)
                0x00014260                find_removable_dio
 .any.text.find_removable_dao
                0x0001429c       0x34 contiki-wismote.a(rpl-nbr-policy.)
                0x0001429c                find_removable_dao
 .any.text.rpl_nbr_policy_find_removable
                0x000142d0       0x30 contiki-wismote.a(rpl-nbr-policy.)
                0x000142d0                rpl_nbr_policy_find_removable
 .any.text.frame802154_get_pan_id
                0x00014300        0x6 contiki-wismote.a(frame802154.o)
                0x00014300                frame802154_get_pan_id
 .any.text.frame802154_has_panid
                0x00014306       0x78 contiki-wismote.a(frame802154.o)
                0x00014306                frame802154_has_panid
 .any.text.field_len
                0x0001437e       0xa8 contiki-wismote.a(frame802154.o)
 .any.text.frame802154_is_broadcast_addr
                0x00014426       0x28 contiki-wismote.a(frame802154.o)
                0x00014426                frame802154_is_broadcast_addr
 .any.text.frame802154_hdrlen
                0x0001444e       0x32 contiki-wismote.a(frame802154.o)
                0x0001444e                frame802154_hdrlen
 .any.text.frame802154_create
                0x00014480      0x136 contiki-wismote.a(frame802154.o)
                0x00014480                frame802154_create
 .any.text.frame802154_parse
                0x000145b6      0x1be contiki-wismote.a(frame802154.o)
                0x000145b6                frame802154_parse
 .any.text.mac_sequence_is_duplicate
                0x00014774       0x60 contiki-wismote.a(mac-sequence.o)
                0x00014774                mac_sequence_is_duplicate
 .any.text.mac_sequence_register_seqno
                0x000147d4       0x76 contiki-wismote.a(mac-sequence.o)
                0x000147d4                mac_sequence_register_seqno

.far.rodata     0x0001484a        0x0
                0x0001484a                . = ALIGN (0x2)
 *(.far.rodata .far.rodata.*)
                0x0001484a                . = ALIGN (0x2)
                0x0001484a                _efartext = .

.far.data       0x00000000        0x0 load address 0x0001484a
                0x00000000                . = ALIGN (0x2)
                0x00000000                __far_data_start = .
 *(.far.data .far.data.*)
                0x00000000                . = ALIGN (0x2)
                0x00000000                _efardata = .
                0x0001484a                __far_data_load_start = LOADADDR (.far.data)
                0x00000000                __far_data_size = SIZEOF (.far.data)

.far.bss        0x00000000        0x0 load address 0x0001484a
                0x00000000                . = ALIGN (0x2)
                0x00000000                __far_bss_start = .
 *(.far.bss .far.bss.*)
                0x00000000                . = ALIGN (0x2)
                0x00000000                __far_bss_end = .
                0x00000000                __far_bss_size = SIZEOF (.far.bss)
                0x00000000                . = ALIGN (0x2)
                0x00000000                _far_end = .

.profiler
 *(.profiler)

.stab           0x00000000    0x2d888
 *(.stab)
 .stab          0x00000000     0x210c border-router.co
 .stab          0x0000210c      0x8a0 obj_wismote/slip-bridge.o
                               0x1260 (size before relaxing)
 .stab          0x000029ac      0xa68 obj_wismote/httpd-simple.o
                               0x1bcc (size before relaxing)
 .stab          0x00003414     0x11dc obj_wismote/contiki-wismote-main.o
                               0x1a28 (size before relaxing)
 .stab          0x000045f0      0x24c contiki-wismote.a(contiki-wismote)
                                0x5c4 (size before relaxing)
 .stab          0x0000483c      0x474 contiki-wismote.a(button-sensor.o)
                                0x7f8 (size before relaxing)
 .stab          0x00004cb0      0x9d8 contiki-wismote.a(xmem.o)
                                0xf18 (size before relaxing)
 .stab          0x00005688      0x2b8 contiki-wismote.a(node-id.o)
                                0x4f8 (size before relaxing)
 .stab          0x00005940      0x69c contiki-wismote.a(sensors.o)
                                0xbd0 (size before relaxing)
 .stab          0x00005fdc     0x23d0 contiki-wismote.a(cc2520.o)
                               0x2afc (size before relaxing)
 .stab          0x000083ac      0x5c4 contiki-wismote.a(cc2520-arch.o)
                               0x1734 (size before relaxing)
 .stab          0x00008970      0x4e0 contiki-wismote.a(uart1.o)
                                0xa14 (size before relaxing)
 .stab          0x00008e50      0x264 contiki-wismote.a(slip_uart1.o)
                                0x5d0 (size before relaxing)
 .stab          0x000090b4      0xc54 contiki-wismote.a(slip.o)
                               0x141c (size before relaxing)
 .stab          0x00009d08      0x5f4 contiki-wismote.a(msp430.o)
                                0x960 (size before relaxing)
 .stab          0x0000a2fc      0x8b8 contiki-wismote.a(clock.o)
                                0xc24 (size before relaxing)
 .stab          0x0000abb4      0x5a0 contiki-wismote.a(leds.o)
                                0x804 (size before relaxing)
 .stab          0x0000b154      0x360 contiki-wismote.a(leds-arch.o)
                                0x6cc (size before relaxing)
 .stab          0x0000b4b4      0x3cc contiki-wismote.a(watchdog.o)
                                0x738 (size before relaxing)
 .stab          0x0000b880      0x3b4 contiki-wismote.a(rtimer-arch.o)
                                0x720 (size before relaxing)
 .stab          0x0000bc34      0x294 contiki-wismote.a(autostart.o)
                                0x54c (size before relaxing)
 .stab          0x0000bec8      0x834 contiki-wismote.a(ctimer.o)
                                0xbb8 (size before relaxing)
 .stab          0x0000c6fc      0x48c contiki-wismote.a(energest.o)
                                0x72c (size before relaxing)
 .stab          0x0000cb88      0xa80 contiki-wismote.a(etimer.o)
                                0xd68 (size before relaxing)
 .stab          0x0000d608      0xb94 contiki-wismote.a(process.o)
                               0x1044 (size before relaxing)
 .stab          0x0000e19c      0x3cc contiki-wismote.a(rtimer.o)
                                0x6cc (size before relaxing)
 .stab          0x0000e568      0x348 contiki-wismote.a(timer.o)
                                0x5a0 (size before relaxing)
 .stab          0x0000e8b0      0x7bc contiki-wismote.a(list.o)
                                0x7c8 (size before relaxing)
 .stab          0x0000f06c      0x5c4 contiki-wismote.a(memb.o)
                                0xb10 (size before relaxing)
 .stab          0x0000f630      0x21c contiki-wismote.a(random.o)
                                0x630 (size before relaxing)
 .stab          0x0000f84c     0x2b80 contiki-wismote.a(sicslowpan.o)
                               0x3564 (size before relaxing)
 .stab          0x000123cc     0x2a3c contiki-wismote.a(uip6.o)
                               0x375c (size before relaxing)
 .stab          0x00014e08     0x147c contiki-wismote.a(uip-ds6.o)
                               0x2178 (size before relaxing)
 .stab          0x00016284      0xc90 contiki-wismote.a(uip-ds6-nbr.o)
                               0x15b4 (size before relaxing)
 .stab          0x00016f14     0x19d4 contiki-wismote.a(uip-ds6-route.o)
                               0x2604 (size before relaxing)
 .stab          0x000188e8      0xbc4 contiki-wismote.a(uip-icmp6.o)
                               0x18fc (size before relaxing)
 .stab          0x000194ac      0x594 contiki-wismote.a(uip-nd6.o)
                               0x1218 (size before relaxing)
 .stab          0x00019a40      0xc60 contiki-wismote.a(psock.o)
                               0x1dac (size before relaxing)
 .stab          0x0001a6a0     0x12b4 contiki-wismote.a(tcpip.o)
                               0x2628 (size before relaxing)
 .stab          0x0001b954      0x3d8 contiki-wismote.a(uip-debug.o)
                                0xbc4 (size before relaxing)
 .stab          0x0001bd2c      0xb4c contiki-wismote.a(rpl.o)
                               0x19a4 (size before relaxing)
 .stab          0x0001c878     0x450c contiki-wismote.a(rpl-dag.o)
                               0x51d8 (size before relaxing)
 .stab          0x00020d84      0xa38 contiki-wismote.a(rpl-ext-header.)
                               0x1884 (size before relaxing)
 .stab          0x000217bc     0x2310 contiki-wismote.a(rpl-icmp6.o)
                               0x31bc (size before relaxing)
 .stab          0x00023acc      0x9e4 contiki-wismote.a(rpl-mrhof.o)
                               0x17f4 (size before relaxing)
 .stab          0x000244b0      0xfcc contiki-wismote.a(rpl-timers.o)
                               0x1ddc (size before relaxing)
 .stab          0x0002547c      0x2ac contiki-wismote.a(linkaddr.o)
                                0x6c0 (size before relaxing)
 .stab          0x00025728      0x7bc contiki-wismote.a(link-stats.o)
                               0x11a0 (size before relaxing)
 .stab          0x00025ee4     0x10f8 contiki-wismote.a(nbr-table.o)
                               0x1a7c (size before relaxing)
 .stab          0x00026fdc      0x330 contiki-wismote.a(net-debug.o)
                                0xb10 (size before relaxing)
 .stab          0x0002730c      0xc48 contiki-wismote.a(packetbuf.o)
                               0x1d94 (size before relaxing)
 .stab          0x00027f54      0xa80 contiki-wismote.a(queuebuf.o)
                               0x1bb4 (size before relaxing)
 .stab          0x000289d4     0x111c contiki-wismote.a(csma.o)
                               0x165c (size before relaxing)
 .stab          0x00029af0      0x900 contiki-wismote.a(framer-802154.o)
                                0xf24 (size before relaxing)
 .stab          0x0002a3f0      0x1f8 contiki-wismote.a(mac.o)
                                0x504 (size before relaxing)
 .stab          0x0002a5e8      0x948 contiki-wismote.a(nullrdc.o)
                               0x12a8 (size before relaxing)
 .stab          0x0002af30      0x39c contiki-wismote.a(nullsec.o)
                                0xce4 (size before relaxing)
 .stab          0x0002b2cc      0x27c contiki-wismote.a(spi.o)
                                0x5e8 (size before relaxing)
 .stab          0x0002b548      0x3b4 contiki-wismote.a(stimer.o)
                                0x60c (size before relaxing)
 .stab          0x0002b8fc      0x960 contiki-wismote.a(rpl-nbr-policy.)
                               0x1764 (size before relaxing)
 .stab          0x0002c25c      0xf9c contiki-wismote.a(frame802154.o)
                               0x17a0 (size before relaxing)
 .stab          0x0002d1f8      0x690 contiki-wismote.a(mac-sequence.o)
                               0x17dc (size before relaxing)

.stabstr        0x00000000    0x1ef8a
 *(.stabstr)
 .stabstr       0x00000000    0x1ef8a border-router.co

.stab.excl
 *(.stab.excl)

.stab.exclstr
 *(.stab.exclstr)

.stab.index
 *(.stab.index)

.stab.indexstr
 *(.stab.indexstr)

.comment        0x00000000       0x30
 *(.comment)
 .comment       0x00000000       0x30 border-router.co
                                 0x31 (size before relaxing)
 .comment       0x00000000       0x31 obj_wismote/slip-bridge.o
 .comment       0x00000000       0x31 obj_wismote/httpd-simple.o
 .comment       0x00000000       0x31 obj_wismote/contiki-wismote-main.o
 .comment       0x00000000       0x31 contiki-wismote.a(contiki-wismote)
 .comment       0x00000000       0x31 contiki-wismote.a(button-sensor.o)
 .comment       0x00000000       0x31 contiki-wismote.a(xmem.o)
 .comment       0x00000000       0x31 contiki-wismote.a(node-id.o)
 .comment       0x00000000       0x31 contiki-wismote.a(sensors.o)
 .comment       0x00000000       0x31 contiki-wismote.a(cc2520.o)
 .comment       0x00000000       0x31 contiki-wismote.a(cc2520-arch.o)
 .comment       0x00000000       0x31 contiki-wismote.a(uart1.o)
 .comment       0x00000000       0x31 contiki-wismote.a(slip_uart1.o)
 .comment       0x00000000       0x31 contiki-wismote.a(slip.o)
 .comment       0x00000000       0x31 contiki-wismote.a(msp430.o)
 .comment       0x00000000       0x31 contiki-wismote.a(clock.o)
 .comment       0x00000000       0x31 contiki-wismote.a(leds.o)
 .comment       0x00000000       0x31 contiki-wismote.a(leds-arch.o)
 .comment       0x00000000       0x31 contiki-wismote.a(watchdog.o)
 .comment       0x00000000       0x31 contiki-wismote.a(rtimer-arch.o)
 .comment       0x00000000       0x31 contiki-wismote.a(autostart.o)
 .comment       0x00000000       0x31 contiki-wismote.a(ctimer.o)
 .comment       0x00000000       0x31 contiki-wismote.a(energest.o)
 .comment       0x00000000       0x31 contiki-wismote.a(etimer.o)
 .comment       0x00000000       0x31 contiki-wismote.a(process.o)
 .comment       0x00000000       0x31 contiki-wismote.a(rtimer.o)
 .comment       0x00000000       0x31 contiki-wismote.a(timer.o)
 .comment       0x00000000       0x31 contiki-wismote.a(list.o)
 .comment       0x00000000       0x31 contiki-wismote.a(memb.o)
 .comment       0x00000000       0x31 contiki-wismote.a(random.o)
 .comment       0x00000000       0x31 contiki-wismote.a(sicslowpan.o)
 .comment       0x00000000       0x31 contiki-wismote.a(uip6.o)
 .comment       0x00000000       0x31 contiki-wismote.a(uip-ds6.o)
 .comment       0x00000000       0x31 contiki-wismote.a(uip-ds6-nbr.o)
 .comment       0x00000000       0x31 contiki-wismote.a(uip-ds6-route.o)
 .comment       0x00000000       0x31 contiki-wismote.a(uip-icmp6.o)
 .comment       0x00000000       0x31 contiki-wismote.a(uip-nd6.o)
 .comment       0x00000000       0x31 contiki-wismote.a(psock.o)
 .comment       0x00000000       0x31 contiki-wismote.a(tcpip.o)
 .comment       0x00000000       0x31 contiki-wismote.a(uip-debug.o)
 .comment       0x00000000       0x31 contiki-wismote.a(rpl.o)
 .comment       0x00000000       0x31 contiki-wismote.a(rpl-dag.o)
 .comment       0x00000000       0x31 contiki-wismote.a(rpl-ext-header.)
 .comment       0x00000000       0x31 contiki-wismote.a(rpl-icmp6.o)
 .comment       0x00000000       0x31 contiki-wismote.a(rpl-mrhof.o)
 .comment       0x00000000       0x31 contiki-wismote.a(rpl-timers.o)
 .comment       0x00000000       0x31 contiki-wismote.a(linkaddr.o)
 .comment       0x00000000       0x31 contiki-wismote.a(link-stats.o)
 .comment       0x00000000       0x31 contiki-wismote.a(nbr-table.o)
 .comment       0x00000000       0x31 contiki-wismote.a(net-debug.o)
 .comment       0x00000000       0x31 contiki-wismote.a(packetbuf.o)
 .comment       0x00000000       0x31 contiki-wismote.a(queuebuf.o)
 .comment       0x00000000       0x31 contiki-wismote.a(csma.o)
 .comment       0x00000000       0x31 contiki-wismote.a(framer-802154.o)
 .comment       0x00000000       0x31 contiki-wismote.a(mac.o)
 .comment       0x00000000       0x31 contiki-wismote.a(nullrdc.o)
 .comment       0x00000000       0x31 contiki-wismote.a(nullsec.o)
 .comment       0x00000000       0x31 contiki-wismote.a(spi.o)
 .comment       0x00000000       0x31 contiki-wismote.a(stimer.o)
 .comment       0x00000000       0x31 contiki-wismote.a(rpl-nbr-policy.)
 .comment       0x00000000       0x31 contiki-wismote.a(frame802154.o)
 .comment       0x00000000       0x31 contiki-wismote.a(mac-sequence.o)
 .comment       0x00000000       0x31 /home/anagha/Downloads/msp430-47/bin/../lib/gcc/msp430/4.7.0/../../../../msp430/lib/mcpu-430x/mmpy-16/msr20/mc20/libc.a(printf.o)
 .comment       0x00000000       0x31 /home/anagha/Downloads/msp430-47/bin/../lib/gcc/msp430/4.7.0/../../../../msp430/lib/mcpu-430x/mmpy-16/msr20/mc20/libc.a(sprintf.o)
 .comment       0x00000000       0x31 /home/anagha/Downloads/msp430-47/bin/../lib/gcc/msp430/4.7.0/../../../../msp430/lib/mcpu-430x/mmpy-16/msr20/mc20/libc.a(vuprintf.o)
 .comment       0x00000000       0x31 /home/anagha/Downloads/msp430-47/bin/../lib/gcc/msp430/4.7.0/../../../../msp430/lib/mcpu-430x/mmpy-16/msr20/mc20/libc.a(puts.o)
 .comment       0x00000000       0x31 /home/anagha/Downloads/msp430-47/bin/../lib/gcc/msp430/4.7.0/../../../../msp430/lib/mcpu-430x/mmpy-16/msr20/mc20/libc.a(rand.o)
 .comment       0x00000000       0x31 /home/anagha/Downloads/msp430-47/bin/../lib/gcc/msp430/4.7.0/../../../../msp430/lib/mcpu-430x/mmpy-16/msr20/mc20/libc.a(strncmp.o)
 .comment       0x00000000       0x31 /home/anagha/Downloads/msp430-47/bin/../lib/gcc/msp430/4.7.0/../../../../msp430/lib/mcpu-430x/mmpy-16/msr20/mc20/libc.a(memcmp.o)
 .comment       0x00000000       0x31 /home/anagha/Downloads/msp430-47/bin/../lib/gcc/msp430/4.7.0/../../../../msp430/lib/mcpu-430x/mmpy-16/msr20/mc20/libc.a(strcpy.o)
 .comment       0x00000000       0x31 /home/anagha/Downloads/msp430-47/bin/../lib/gcc/msp430/4.7.0/../../../../msp430/lib/mcpu-430x/mmpy-16/msr20/mc20/libc.a(strncpy.o)
 .comment       0x00000000       0x31 /home/anagha/Downloads/msp430-47/bin/../lib/gcc/msp430/4.7.0/../../../../msp430/lib/mcpu-430x/mmpy-16/msr20/mc20/libc.a(memcpy.o)
 .comment       0x00000000       0x31 /home/anagha/Downloads/msp430-47/bin/../lib/gcc/msp430/4.7.0/../../../../msp430/lib/mcpu-430x/mmpy-16/msr20/mc20/libc.a(memmove.o)
 .comment       0x00000000       0x31 /home/anagha/Downloads/msp430-47/bin/../lib/gcc/msp430/4.7.0/../../../../msp430/lib/mcpu-430x/mmpy-16/msr20/mc20/libc.a(memset.o)

.debug
 *(.debug)

.line
 *(.line)

.debug_srcinfo
 *(.debug_srcinfo)

.debug_sfnames
 *(.debug_sfnames)

.debug_aranges  0x00000000      0x368
 *(.debug_aranges)
 .debug_aranges
                0x00000000       0x20 /home/anagha/Downloads/msp430-47/bin/../lib/gcc/msp430/4.7.0/mcpu-430x/mmpy-16/msr20/mc20/crt0ivtbl64.o
 .debug_aranges
                0x00000020       0x20 /home/anagha/Downloads/msp430-47/bin/../lib/gcc/msp430/4.7.0/mcpu-430x/mmpy-16/msr20/mc20/libgcc.a(_udivmod16.o)
 .debug_aranges
                0x00000040       0x20 /home/anagha/Downloads/msp430-47/bin/../lib/gcc/msp430/4.7.0/mcpu-430x/mmpy-16/msr20/mc20/libgcc.a(_divmod16.o)
 .debug_aranges
                0x00000060       0x20 /home/anagha/Downloads/msp430-47/bin/../lib/gcc/msp430/4.7.0/mcpu-430x/mmpy-16/msr20/mc20/libgcc.a(_udivmod32.o)
 .debug_aranges
                0x00000080       0x20 /home/anagha/Downloads/msp430-47/bin/../lib/gcc/msp430/4.7.0/mcpu-430x/mmpy-16/msr20/mc20/libgcc.a(_divmod32.o)
 .debug_aranges
                0x000000a0       0x28 /home/anagha/Downloads/msp430-47/bin/../lib/gcc/msp430/4.7.0/../../../../msp430/lib/mcpu-430x/mmpy-16/msr20/mc20/libc.a(printf.o)
 .debug_aranges
                0x000000c8       0x48 /home/anagha/Downloads/msp430-47/bin/../lib/gcc/msp430/4.7.0/../../../../msp430/lib/mcpu-430x/mmpy-16/msr20/mc20/libc.a(sprintf.o)
 .debug_aranges
                0x00000110       0x28 /home/anagha/Downloads/msp430-47/bin/../lib/gcc/msp430/4.7.0/../../../../msp430/lib/mcpu-430x/mmpy-16/msr20/mc20/libc.a(vuprintf.o)
 .debug_aranges
                0x00000138       0x20 /home/anagha/Downloads/msp430-47/bin/../lib/gcc/msp430/4.7.0/../../../../msp430/lib/mcpu-430x/mmpy-16/msr20/mc20/libc.a(puts.o)
 .debug_aranges
                0x00000158       0x30 /home/anagha/Downloads/msp430-47/bin/../lib/gcc/msp430/4.7.0/../../../../msp430/lib/mcpu-430x/mmpy-16/msr20/mc20/libc.a(rand.o)
 .debug_aranges
                0x00000188       0x20 /home/anagha/Downloads/msp430-47/bin/../lib/gcc/msp430/4.7.0/../../../../msp430/lib/mcpu-430x/mmpy-16/msr20/mc20/libc.a(strncmp.o)
 .debug_aranges
                0x000001a8       0x20 /home/anagha/Downloads/msp430-47/bin/../lib/gcc/msp430/4.7.0/../../../../msp430/lib/mcpu-430x/mmpy-16/msr20/mc20/libc.a(memcmp.o)
 .debug_aranges
                0x000001c8       0x20 /home/anagha/Downloads/msp430-47/bin/../lib/gcc/msp430/4.7.0/../../../../msp430/lib/mcpu-430x/mmpy-16/msr20/mc20/libc.a(strcpy.o)
 .debug_aranges
                0x000001e8       0x20 /home/anagha/Downloads/msp430-47/bin/../lib/gcc/msp430/4.7.0/../../../../msp430/lib/mcpu-430x/mmpy-16/msr20/mc20/libc.a(strncpy.o)
 .debug_aranges
                0x00000208       0x20 /home/anagha/Downloads/msp430-47/bin/../lib/gcc/msp430/4.7.0/../../../../msp430/lib/mcpu-430x/mmpy-16/msr20/mc20/libc.a(memcpy.o)
 .debug_aranges
                0x00000228       0x20 /home/anagha/Downloads/msp430-47/bin/../lib/gcc/msp430/4.7.0/../../../../msp430/lib/mcpu-430x/mmpy-16/msr20/mc20/libc.a(memmove.o)
 .debug_aranges
                0x00000248       0x20 /home/anagha/Downloads/msp430-47/bin/../lib/gcc/msp430/4.7.0/../../../../msp430/lib/mcpu-430x/mmpy-16/msr20/mc20/libc.a(memset.o)
 .debug_aranges
                0x00000268       0x20 /home/anagha/Downloads/msp430-47/bin/../lib/gcc/msp430/4.7.0/mcpu-430x/mmpy-16/msr20/mc20/libgcc.a(_mulsi3.o)
 .debug_aranges
                0x00000288       0x20 /home/anagha/Downloads/msp430-47/bin/../lib/gcc/msp430/4.7.0/mcpu-430x/mmpy-16/msr20/mc20/libgcc.a(_udivmod64.o)
 .debug_aranges
                0x000002a8       0x20 /home/anagha/Downloads/msp430-47/bin/../lib/gcc/msp430/4.7.0/mcpu-430x/mmpy-16/msr20/mc20/libcrt0.a(__watchdog_support.o)
 .debug_aranges
                0x000002c8       0x20 /home/anagha/Downloads/msp430-47/bin/../lib/gcc/msp430/4.7.0/mcpu-430x/mmpy-16/msr20/mc20/libcrt0.a(__init_stack.o)
 .debug_aranges
                0x000002e8       0x20 /home/anagha/Downloads/msp430-47/bin/../lib/gcc/msp430/4.7.0/mcpu-430x/mmpy-16/msr20/mc20/libcrt0.a(_copy_data.o)
 .debug_aranges
                0x00000308       0x20 /home/anagha/Downloads/msp430-47/bin/../lib/gcc/msp430/4.7.0/mcpu-430x/mmpy-16/msr20/mc20/libcrt0.a(_clear_bss.o)
 .debug_aranges
                0x00000328       0x20 /home/anagha/Downloads/msp430-47/bin/../lib/gcc/msp430/4.7.0/mcpu-430x/mmpy-16/msr20/mc20/libcrt0.a(_endless_loop__.o)
 .debug_aranges
                0x00000348       0x20 /home/anagha/Downloads/msp430-47/bin/../lib/gcc/msp430/4.7.0/mcpu-430x/mmpy-16/msr20/mc20/libcrt0.a(_unexpected_.o)

.debug_pubnames
 *(.debug_pubnames)

.debug_info     0x00000000     0x1fdb
 *(.debug_info)
 .debug_info    0x00000000       0xd9 /home/anagha/Downloads/msp430-47/bin/../lib/gcc/msp430/4.7.0/mcpu-430x/mmpy-16/msr20/mc20/crt0ivtbl64.o
 .debug_info    0x000000d9       0xd6 /home/anagha/Downloads/msp430-47/bin/../lib/gcc/msp430/4.7.0/mcpu-430x/mmpy-16/msr20/mc20/libgcc.a(_udivmod16.o)
 .debug_info    0x000001af       0xd6 /home/anagha/Downloads/msp430-47/bin/../lib/gcc/msp430/4.7.0/mcpu-430x/mmpy-16/msr20/mc20/libgcc.a(_divmod16.o)
 .debug_info    0x00000285       0xd6 /home/anagha/Downloads/msp430-47/bin/../lib/gcc/msp430/4.7.0/mcpu-430x/mmpy-16/msr20/mc20/libgcc.a(_udivmod32.o)
 .debug_info    0x0000035b       0xd6 /home/anagha/Downloads/msp430-47/bin/../lib/gcc/msp430/4.7.0/mcpu-430x/mmpy-16/msr20/mc20/libgcc.a(_divmod32.o)
 .debug_info    0x00000431      0x18d /home/anagha/Downloads/msp430-47/bin/../lib/gcc/msp430/4.7.0/../../../../msp430/lib/mcpu-430x/mmpy-16/msr20/mc20/libc.a(printf.o)
 .debug_info    0x000005be      0x352 /home/anagha/Downloads/msp430-47/bin/../lib/gcc/msp430/4.7.0/../../../../msp430/lib/mcpu-430x/mmpy-16/msr20/mc20/libc.a(sprintf.o)
 .debug_info    0x00000910      0x673 /home/anagha/Downloads/msp430-47/bin/../lib/gcc/msp430/4.7.0/../../../../msp430/lib/mcpu-430x/mmpy-16/msr20/mc20/libc.a(vuprintf.o)
 .debug_info    0x00000f83       0xe1 /home/anagha/Downloads/msp430-47/bin/../lib/gcc/msp430/4.7.0/../../../../msp430/lib/mcpu-430x/mmpy-16/msr20/mc20/libc.a(puts.o)
 .debug_info    0x00001064      0x172 /home/anagha/Downloads/msp430-47/bin/../lib/gcc/msp430/4.7.0/../../../../msp430/lib/mcpu-430x/mmpy-16/msr20/mc20/libc.a(rand.o)
 .debug_info    0x000011d6       0xd8 /home/anagha/Downloads/msp430-47/bin/../lib/gcc/msp430/4.7.0/../../../../msp430/lib/mcpu-430x/mmpy-16/msr20/mc20/libc.a(strncmp.o)
 .debug_info    0x000012ae       0xff /home/anagha/Downloads/msp430-47/bin/../lib/gcc/msp430/4.7.0/../../../../msp430/lib/mcpu-430x/mmpy-16/msr20/mc20/libc.a(memcmp.o)
 .debug_info    0x000013ad       0xd3 /home/anagha/Downloads/msp430-47/bin/../lib/gcc/msp430/4.7.0/../../../../msp430/lib/mcpu-430x/mmpy-16/msr20/mc20/libc.a(strcpy.o)
 .debug_info    0x00001480      0x102 /home/anagha/Downloads/msp430-47/bin/../lib/gcc/msp430/4.7.0/../../../../msp430/lib/mcpu-430x/mmpy-16/msr20/mc20/libc.a(strncpy.o)
 .debug_info    0x00001582      0x144 /home/anagha/Downloads/msp430-47/bin/../lib/gcc/msp430/4.7.0/../../../../msp430/lib/mcpu-430x/mmpy-16/msr20/mc20/libc.a(memcpy.o)
 .debug_info    0x000016c6      0x144 /home/anagha/Downloads/msp430-47/bin/../lib/gcc/msp430/4.7.0/../../../../msp430/lib/mcpu-430x/mmpy-16/msr20/mc20/libc.a(memmove.o)
 .debug_info    0x0000180a      0x12d /home/anagha/Downloads/msp430-47/bin/../lib/gcc/msp430/4.7.0/../../../../msp430/lib/mcpu-430x/mmpy-16/msr20/mc20/libc.a(memset.o)
 .debug_info    0x00001937       0xd6 /home/anagha/Downloads/msp430-47/bin/../lib/gcc/msp430/4.7.0/mcpu-430x/mmpy-16/msr20/mc20/libgcc.a(_mulsi3.o)
 .debug_info    0x00001a0d       0xd6 /home/anagha/Downloads/msp430-47/bin/../lib/gcc/msp430/4.7.0/mcpu-430x/mmpy-16/msr20/mc20/libgcc.a(_udivmod64.o)
 .debug_info    0x00001ae3       0xd4 /home/anagha/Downloads/msp430-47/bin/../lib/gcc/msp430/4.7.0/mcpu-430x/mmpy-16/msr20/mc20/libcrt0.a(__watchdog_support.o)
 .debug_info    0x00001bb7       0xd4 /home/anagha/Downloads/msp430-47/bin/../lib/gcc/msp430/4.7.0/mcpu-430x/mmpy-16/msr20/mc20/libcrt0.a(__init_stack.o)
 .debug_info    0x00001c8b       0xd4 /home/anagha/Downloads/msp430-47/bin/../lib/gcc/msp430/4.7.0/mcpu-430x/mmpy-16/msr20/mc20/libcrt0.a(_copy_data.o)
 .debug_info    0x00001d5f       0xd4 /home/anagha/Downloads/msp430-47/bin/../lib/gcc/msp430/4.7.0/mcpu-430x/mmpy-16/msr20/mc20/libcrt0.a(_clear_bss.o)
 .debug_info    0x00001e33       0xd4 /home/anagha/Downloads/msp430-47/bin/../lib/gcc/msp430/4.7.0/mcpu-430x/mmpy-16/msr20/mc20/libcrt0.a(_endless_loop__.o)
 .debug_info    0x00001f07       0xd4 /home/anagha/Downloads/msp430-47/bin/../lib/gcc/msp430/4.7.0/mcpu-430x/mmpy-16/msr20/mc20/libcrt0.a(_unexpected_.o)
 *(.gnu.linkonce.wi.*)

.debug_abbrev   0x00000000      0xb49
 *(.debug_abbrev)
 .debug_abbrev  0x00000000       0x14 /home/anagha/Downloads/msp430-47/bin/../lib/gcc/msp430/4.7.0/mcpu-430x/mmpy-16/msr20/mc20/crt0ivtbl64.o
 .debug_abbrev  0x00000014       0x14 /home/anagha/Downloads/msp430-47/bin/../lib/gcc/msp430/4.7.0/mcpu-430x/mmpy-16/msr20/mc20/libgcc.a(_udivmod16.o)
 .debug_abbrev  0x00000028       0x14 /home/anagha/Downloads/msp430-47/bin/../lib/gcc/msp430/4.7.0/mcpu-430x/mmpy-16/msr20/mc20/libgcc.a(_divmod16.o)
 .debug_abbrev  0x0000003c       0x14 /home/anagha/Downloads/msp430-47/bin/../lib/gcc/msp430/4.7.0/mcpu-430x/mmpy-16/msr20/mc20/libgcc.a(_udivmod32.o)
 .debug_abbrev  0x00000050       0x14 /home/anagha/Downloads/msp430-47/bin/../lib/gcc/msp430/4.7.0/mcpu-430x/mmpy-16/msr20/mc20/libgcc.a(_divmod32.o)
 .debug_abbrev  0x00000064       0xfa /home/anagha/Downloads/msp430-47/bin/../lib/gcc/msp430/4.7.0/../../../../msp430/lib/mcpu-430x/mmpy-16/msr20/mc20/libc.a(printf.o)
 .debug_abbrev  0x0000015e      0x14c /home/anagha/Downloads/msp430-47/bin/../lib/gcc/msp430/4.7.0/../../../../msp430/lib/mcpu-430x/mmpy-16/msr20/mc20/libc.a(sprintf.o)
 .debug_abbrev  0x000002aa      0x23e /home/anagha/Downloads/msp430-47/bin/../lib/gcc/msp430/4.7.0/../../../../msp430/lib/mcpu-430x/mmpy-16/msr20/mc20/libc.a(vuprintf.o)
 .debug_abbrev  0x000004e8       0xa3 /home/anagha/Downloads/msp430-47/bin/../lib/gcc/msp430/4.7.0/../../../../msp430/lib/mcpu-430x/mmpy-16/msr20/mc20/libc.a(puts.o)
 .debug_abbrev  0x0000058b       0xfb /home/anagha/Downloads/msp430-47/bin/../lib/gcc/msp430/4.7.0/../../../../msp430/lib/mcpu-430x/mmpy-16/msr20/mc20/libc.a(rand.o)
 .debug_abbrev  0x00000686       0x72 /home/anagha/Downloads/msp430-47/bin/../lib/gcc/msp430/4.7.0/../../../../msp430/lib/mcpu-430x/mmpy-16/msr20/mc20/libc.a(strncmp.o)
 .debug_abbrev  0x000006f8       0x9e /home/anagha/Downloads/msp430-47/bin/../lib/gcc/msp430/4.7.0/../../../../msp430/lib/mcpu-430x/mmpy-16/msr20/mc20/libc.a(memcmp.o)
 .debug_abbrev  0x00000796       0x83 /home/anagha/Downloads/msp430-47/bin/../lib/gcc/msp430/4.7.0/../../../../msp430/lib/mcpu-430x/mmpy-16/msr20/mc20/libc.a(strcpy.o)
 .debug_abbrev  0x00000819       0x99 /home/anagha/Downloads/msp430-47/bin/../lib/gcc/msp430/4.7.0/../../../../msp430/lib/mcpu-430x/mmpy-16/msr20/mc20/libc.a(strncpy.o)
 .debug_abbrev  0x000008b2       0xab /home/anagha/Downloads/msp430-47/bin/../lib/gcc/msp430/4.7.0/../../../../msp430/lib/mcpu-430x/mmpy-16/msr20/mc20/libc.a(memcpy.o)
 .debug_abbrev  0x0000095d       0xab /home/anagha/Downloads/msp430-47/bin/../lib/gcc/msp430/4.7.0/../../../../msp430/lib/mcpu-430x/mmpy-16/msr20/mc20/libc.a(memmove.o)
 .debug_abbrev  0x00000a08       0xa1 /home/anagha/Downloads/msp430-47/bin/../lib/gcc/msp430/4.7.0/../../../../msp430/lib/mcpu-430x/mmpy-16/msr20/mc20/libc.a(memset.o)
 .debug_abbrev  0x00000aa9       0x14 /home/anagha/Downloads/msp430-47/bin/../lib/gcc/msp430/4.7.0/mcpu-430x/mmpy-16/msr20/mc20/libgcc.a(_mulsi3.o)
 .debug_abbrev  0x00000abd       0x14 /home/anagha/Downloads/msp430-47/bin/../lib/gcc/msp430/4.7.0/mcpu-430x/mmpy-16/msr20/mc20/libgcc.a(_udivmod64.o)
 .debug_abbrev  0x00000ad1       0x14 /home/anagha/Downloads/msp430-47/bin/../lib/gcc/msp430/4.7.0/mcpu-430x/mmpy-16/msr20/mc20/libcrt0.a(__watchdog_support.o)
 .debug_abbrev  0x00000ae5       0x14 /home/anagha/Downloads/msp430-47/bin/../lib/gcc/msp430/4.7.0/mcpu-430x/mmpy-16/msr20/mc20/libcrt0.a(__init_stack.o)
 .debug_abbrev  0x00000af9       0x14 /home/anagha/Downloads/msp430-47/bin/../lib/gcc/msp430/4.7.0/mcpu-430x/mmpy-16/msr20/mc20/libcrt0.a(_copy_data.o)
 .debug_abbrev  0x00000b0d       0x14 /home/anagha/Downloads/msp430-47/bin/../lib/gcc/msp430/4.7.0/mcpu-430x/mmpy-16/msr20/mc20/libcrt0.a(_clear_bss.o)
 .debug_abbrev  0x00000b21       0x14 /home/anagha/Downloads/msp430-47/bin/../lib/gcc/msp430/4.7.0/mcpu-430x/mmpy-16/msr20/mc20/libcrt0.a(_endless_loop__.o)
 .debug_abbrev  0x00000b35       0x14 /home/anagha/Downloads/msp430-47/bin/../lib/gcc/msp430/4.7.0/mcpu-430x/mmpy-16/msr20/mc20/libcrt0.a(_unexpected_.o)

.debug_line     0x00000000     0x1324
 *(.debug_line)
 .debug_line    0x00000000       0x65 /home/anagha/Downloads/msp430-47/bin/../lib/gcc/msp430/4.7.0/mcpu-430x/mmpy-16/msr20/mc20/crt0ivtbl64.o
 .debug_line    0x00000065       0x71 /home/anagha/Downloads/msp430-47/bin/../lib/gcc/msp430/4.7.0/mcpu-430x/mmpy-16/msr20/mc20/libgcc.a(_udivmod16.o)
 .debug_line    0x000000d6       0x7c /home/anagha/Downloads/msp430-47/bin/../lib/gcc/msp430/4.7.0/mcpu-430x/mmpy-16/msr20/mc20/libgcc.a(_divmod16.o)
 .debug_line    0x00000152       0x7c /home/anagha/Downloads/msp430-47/bin/../lib/gcc/msp430/4.7.0/mcpu-430x/mmpy-16/msr20/mc20/libgcc.a(_udivmod32.o)
 .debug_line    0x000001ce       0x85 /home/anagha/Downloads/msp430-47/bin/../lib/gcc/msp430/4.7.0/mcpu-430x/mmpy-16/msr20/mc20/libgcc.a(_divmod32.o)
 .debug_line    0x00000253       0xec /home/anagha/Downloads/msp430-47/bin/../lib/gcc/msp430/4.7.0/../../../../msp430/lib/mcpu-430x/mmpy-16/msr20/mc20/libc.a(printf.o)
 .debug_line    0x0000033f      0x152 /home/anagha/Downloads/msp430-47/bin/../lib/gcc/msp430/4.7.0/../../../../msp430/lib/mcpu-430x/mmpy-16/msr20/mc20/libc.a(sprintf.o)
 .debug_line    0x00000491      0x39b /home/anagha/Downloads/msp430-47/bin/../lib/gcc/msp430/4.7.0/../../../../msp430/lib/mcpu-430x/mmpy-16/msr20/mc20/libc.a(vuprintf.o)
 .debug_line    0x0000082c       0x67 /home/anagha/Downloads/msp430-47/bin/../lib/gcc/msp430/4.7.0/../../../../msp430/lib/mcpu-430x/mmpy-16/msr20/mc20/libc.a(puts.o)
 .debug_line    0x00000893       0x6e /home/anagha/Downloads/msp430-47/bin/../lib/gcc/msp430/4.7.0/../../../../msp430/lib/mcpu-430x/mmpy-16/msr20/mc20/libc.a(rand.o)
 .debug_line    0x00000901       0xd0 /home/anagha/Downloads/msp430-47/bin/../lib/gcc/msp430/4.7.0/../../../../msp430/lib/mcpu-430x/mmpy-16/msr20/mc20/libc.a(strncmp.o)
 .debug_line    0x000009d1       0xd0 /home/anagha/Downloads/msp430-47/bin/../lib/gcc/msp430/4.7.0/../../../../msp430/lib/mcpu-430x/mmpy-16/msr20/mc20/libc.a(memcmp.o)
 .debug_line    0x00000aa1       0x4f /home/anagha/Downloads/msp430-47/bin/../lib/gcc/msp430/4.7.0/../../../../msp430/lib/mcpu-430x/mmpy-16/msr20/mc20/libc.a(strcpy.o)
 .debug_line    0x00000af0       0xcc /home/anagha/Downloads/msp430-47/bin/../lib/gcc/msp430/4.7.0/../../../../msp430/lib/mcpu-430x/mmpy-16/msr20/mc20/libc.a(strncpy.o)
 .debug_line    0x00000bbc      0x159 /home/anagha/Downloads/msp430-47/bin/../lib/gcc/msp430/4.7.0/../../../../msp430/lib/mcpu-430x/mmpy-16/msr20/mc20/libc.a(memcpy.o)
 .debug_line    0x00000d15      0x158 /home/anagha/Downloads/msp430-47/bin/../lib/gcc/msp430/4.7.0/../../../../msp430/lib/mcpu-430x/mmpy-16/msr20/mc20/libc.a(memmove.o)
 .debug_line    0x00000e6d      0x133 /home/anagha/Downloads/msp430-47/bin/../lib/gcc/msp430/4.7.0/../../../../msp430/lib/mcpu-430x/mmpy-16/msr20/mc20/libc.a(memset.o)
 .debug_line    0x00000fa0       0x75 /home/anagha/Downloads/msp430-47/bin/../lib/gcc/msp430/4.7.0/mcpu-430x/mmpy-16/msr20/mc20/libgcc.a(_mulsi3.o)
 .debug_line    0x00001015       0xba /home/anagha/Downloads/msp430-47/bin/../lib/gcc/msp430/4.7.0/mcpu-430x/mmpy-16/msr20/mc20/libgcc.a(_udivmod64.o)
 .debug_line    0x000010cf       0x63 /home/anagha/Downloads/msp430-47/bin/../lib/gcc/msp430/4.7.0/mcpu-430x/mmpy-16/msr20/mc20/libcrt0.a(__watchdog_support.o)
 .debug_line    0x00001132       0x61 /home/anagha/Downloads/msp430-47/bin/../lib/gcc/msp430/4.7.0/mcpu-430x/mmpy-16/msr20/mc20/libcrt0.a(__init_stack.o)
 .debug_line    0x00001193       0x67 /home/anagha/Downloads/msp430-47/bin/../lib/gcc/msp430/4.7.0/mcpu-430x/mmpy-16/msr20/mc20/libcrt0.a(_copy_data.o)
 .debug_line    0x000011fa       0x67 /home/anagha/Downloads/msp430-47/bin/../lib/gcc/msp430/4.7.0/mcpu-430x/mmpy-16/msr20/mc20/libcrt0.a(_clear_bss.o)
 .debug_line    0x00001261       0x62 /home/anagha/Downloads/msp430-47/bin/../lib/gcc/msp430/4.7.0/mcpu-430x/mmpy-16/msr20/mc20/libcrt0.a(_endless_loop__.o)
 .debug_line    0x000012c3       0x61 /home/anagha/Downloads/msp430-47/bin/../lib/gcc/msp430/4.7.0/mcpu-430x/mmpy-16/msr20/mc20/libcrt0.a(_unexpected_.o)

.debug_frame    0x00000000      0x2ec
 *(.debug_frame)
 .debug_frame   0x00000000       0x34 /home/anagha/Downloads/msp430-47/bin/../lib/gcc/msp430/4.7.0/../../../../msp430/lib/mcpu-430x/mmpy-16/msr20/mc20/libc.a(printf.o)
 .debug_frame   0x00000034       0x80 /home/anagha/Downloads/msp430-47/bin/../lib/gcc/msp430/4.7.0/../../../../msp430/lib/mcpu-430x/mmpy-16/msr20/mc20/libc.a(sprintf.o)
 .debug_frame   0x000000b4       0x88 /home/anagha/Downloads/msp430-47/bin/../lib/gcc/msp430/4.7.0/../../../../msp430/lib/mcpu-430x/mmpy-16/msr20/mc20/libc.a(vuprintf.o)
 .debug_frame   0x0000013c       0x2c /home/anagha/Downloads/msp430-47/bin/../lib/gcc/msp430/4.7.0/../../../../msp430/lib/mcpu-430x/mmpy-16/msr20/mc20/libc.a(puts.o)
 .debug_frame   0x00000168       0x4c /home/anagha/Downloads/msp430-47/bin/../lib/gcc/msp430/4.7.0/../../../../msp430/lib/mcpu-430x/mmpy-16/msr20/mc20/libc.a(rand.o)
 .debug_frame   0x000001b4       0x2c /home/anagha/Downloads/msp430-47/bin/../lib/gcc/msp430/4.7.0/../../../../msp430/lib/mcpu-430x/mmpy-16/msr20/mc20/libc.a(strncmp.o)
 .debug_frame   0x000001e0       0x2c /home/anagha/Downloads/msp430-47/bin/../lib/gcc/msp430/4.7.0/../../../../msp430/lib/mcpu-430x/mmpy-16/msr20/mc20/libc.a(memcmp.o)
 .debug_frame   0x0000020c       0x24 /home/anagha/Downloads/msp430-47/bin/../lib/gcc/msp430/4.7.0/../../../../msp430/lib/mcpu-430x/mmpy-16/msr20/mc20/libc.a(strcpy.o)
 .debug_frame   0x00000230       0x2c /home/anagha/Downloads/msp430-47/bin/../lib/gcc/msp430/4.7.0/../../../../msp430/lib/mcpu-430x/mmpy-16/msr20/mc20/libc.a(strncpy.o)
 .debug_frame   0x0000025c       0x30 /home/anagha/Downloads/msp430-47/bin/../lib/gcc/msp430/4.7.0/../../../../msp430/lib/mcpu-430x/mmpy-16/msr20/mc20/libc.a(memcpy.o)
 .debug_frame   0x0000028c       0x30 /home/anagha/Downloads/msp430-47/bin/../lib/gcc/msp430/4.7.0/../../../../msp430/lib/mcpu-430x/mmpy-16/msr20/mc20/libc.a(memmove.o)
 .debug_frame   0x000002bc       0x30 /home/anagha/Downloads/msp430-47/bin/../lib/gcc/msp430/4.7.0/../../../../msp430/lib/mcpu-430x/mmpy-16/msr20/mc20/libc.a(memset.o)

.debug_str      0x00000000      0x4fa
 *(.debug_str)
 .debug_str     0x00000000      0x11d /home/anagha/Downloads/msp430-47/bin/../lib/gcc/msp430/4.7.0/../../../../msp430/lib/mcpu-430x/mmpy-16/msr20/mc20/libc.a(printf.o)
                                0x16e (size before relaxing)
 .debug_str     0x0000011d       0x75 /home/anagha/Downloads/msp430-47/bin/../lib/gcc/msp430/4.7.0/../../../../msp430/lib/mcpu-430x/mmpy-16/msr20/mc20/libc.a(sprintf.o)
                                0x1d3 (size before relaxing)
 .debug_str     0x00000192      0x22b /home/anagha/Downloads/msp430-47/bin/../lib/gcc/msp430/4.7.0/../../../../msp430/lib/mcpu-430x/mmpy-16/msr20/mc20/libc.a(vuprintf.o)
                                0x3d4 (size before relaxing)
 .debug_str     0x000003bd       0x1d /home/anagha/Downloads/msp430-47/bin/../lib/gcc/msp430/4.7.0/../../../../msp430/lib/mcpu-430x/mmpy-16/msr20/mc20/libc.a(puts.o)
                                0x133 (size before relaxing)
 .debug_str     0x000003da       0x2f /home/anagha/Downloads/msp430-47/bin/../lib/gcc/msp430/4.7.0/../../../../msp430/lib/mcpu-430x/mmpy-16/msr20/mc20/libc.a(rand.o)
                                0x14a (size before relaxing)
 .debug_str     0x00000409       0x1b /home/anagha/Downloads/msp430-47/bin/../lib/gcc/msp430/4.7.0/../../../../msp430/lib/mcpu-430x/mmpy-16/msr20/mc20/libc.a(strncmp.o)
                                0x138 (size before relaxing)
 .debug_str     0x00000424       0x19 /home/anagha/Downloads/msp430-47/bin/../lib/gcc/msp430/4.7.0/../../../../msp430/lib/mcpu-430x/mmpy-16/msr20/mc20/libc.a(memcmp.o)
                                0x136 (size before relaxing)
 .debug_str     0x0000043d       0x23 /home/anagha/Downloads/msp430-47/bin/../lib/gcc/msp430/4.7.0/../../../../msp430/lib/mcpu-430x/mmpy-16/msr20/mc20/libc.a(strcpy.o)
                                0x139 (size before relaxing)
 .debug_str     0x00000460       0x1b /home/anagha/Downloads/msp430-47/bin/../lib/gcc/msp430/4.7.0/../../../../msp430/lib/mcpu-430x/mmpy-16/msr20/mc20/libc.a(strncpy.o)
                                0x138 (size before relaxing)
 .debug_str     0x0000047b       0x3e /home/anagha/Downloads/msp430-47/bin/../lib/gcc/msp430/4.7.0/../../../../msp430/lib/mcpu-430x/mmpy-16/msr20/mc20/libc.a(memcpy.o)
                                0x164 (size before relaxing)
 .debug_str     0x000004b9       0x1b /home/anagha/Downloads/msp430-47/bin/../lib/gcc/msp430/4.7.0/../../../../msp430/lib/mcpu-430x/mmpy-16/msr20/mc20/libc.a(memmove.o)
                                0x166 (size before relaxing)
 .debug_str     0x000004d4       0x26 /home/anagha/Downloads/msp430-47/bin/../lib/gcc/msp430/4.7.0/../../../../msp430/lib/mcpu-430x/mmpy-16/msr20/mc20/libc.a(memset.o)
                                0x162 (size before relaxing)

.debug_loc      0x00000000     0x1790
 *(.debug_loc)
 .debug_loc     0x00000000       0x78 /home/anagha/Downloads/msp430-47/bin/../lib/gcc/msp430/4.7.0/../../../../msp430/lib/mcpu-430x/mmpy-16/msr20/mc20/libc.a(printf.o)
 .debug_loc     0x00000078      0x1d5 /home/anagha/Downloads/msp430-47/bin/../lib/gcc/msp430/4.7.0/../../../../msp430/lib/mcpu-430x/mmpy-16/msr20/mc20/libc.a(sprintf.o)
 .debug_loc     0x0000024d      0xc0e /home/anagha/Downloads/msp430-47/bin/../lib/gcc/msp430/4.7.0/../../../../msp430/lib/mcpu-430x/mmpy-16/msr20/mc20/libc.a(vuprintf.o)
 .debug_loc     0x00000e5b       0x3e /home/anagha/Downloads/msp430-47/bin/../lib/gcc/msp430/4.7.0/../../../../msp430/lib/mcpu-430x/mmpy-16/msr20/mc20/libc.a(puts.o)
 .debug_loc     0x00000e99       0x78 /home/anagha/Downloads/msp430-47/bin/../lib/gcc/msp430/4.7.0/../../../../msp430/lib/mcpu-430x/mmpy-16/msr20/mc20/libc.a(rand.o)
 .debug_loc     0x00000f11       0x7a /home/anagha/Downloads/msp430-47/bin/../lib/gcc/msp430/4.7.0/../../../../msp430/lib/mcpu-430x/mmpy-16/msr20/mc20/libc.a(strncmp.o)
 .debug_loc     0x00000f8b       0x6d /home/anagha/Downloads/msp430-47/bin/../lib/gcc/msp430/4.7.0/../../../../msp430/lib/mcpu-430x/mmpy-16/msr20/mc20/libc.a(memcmp.o)
 .debug_loc     0x00000ff8       0x3c /home/anagha/Downloads/msp430-47/bin/../lib/gcc/msp430/4.7.0/../../../../msp430/lib/mcpu-430x/mmpy-16/msr20/mc20/libc.a(strcpy.o)
 .debug_loc     0x00001034       0x9d /home/anagha/Downloads/msp430-47/bin/../lib/gcc/msp430/4.7.0/../../../../msp430/lib/mcpu-430x/mmpy-16/msr20/mc20/libc.a(strncpy.o)
 .debug_loc     0x000010d1      0x2c3 /home/anagha/Downloads/msp430-47/bin/../lib/gcc/msp430/4.7.0/../../../../msp430/lib/mcpu-430x/mmpy-16/msr20/mc20/libc.a(memcpy.o)
 .debug_loc     0x00001394      0x2c3 /home/anagha/Downloads/msp430-47/bin/../lib/gcc/msp430/4.7.0/../../../../msp430/lib/mcpu-430x/mmpy-16/msr20/mc20/libc.a(memmove.o)
 .debug_loc     0x00001657      0x139 /home/anagha/Downloads/msp430-47/bin/../lib/gcc/msp430/4.7.0/../../../../msp430/lib/mcpu-430x/mmpy-16/msr20/mc20/libc.a(memset.o)

.debug_macinfo
 *(.debug_macinfo)

.debug_pubtypes
 *(.debug_pubtypes)

.debug_ranges   0x00000000      0x138
 *(.debug_ranges)
 .debug_ranges  0x00000000       0x18 /home/anagha/Downloads/msp430-47/bin/../lib/gcc/msp430/4.7.0/../../../../msp430/lib/mcpu-430x/mmpy-16/msr20/mc20/libc.a(printf.o)
 .debug_ranges  0x00000018       0x38 /home/anagha/Downloads/msp430-47/bin/../lib/gcc/msp430/4.7.0/../../../../msp430/lib/mcpu-430x/mmpy-16/msr20/mc20/libc.a(sprintf.o)
 .debug_ranges  0x00000050       0x48 /home/anagha/Downloads/msp430-47/bin/../lib/gcc/msp430/4.7.0/../../../../msp430/lib/mcpu-430x/mmpy-16/msr20/mc20/libc.a(vuprintf.o)
 .debug_ranges  0x00000098       0x10 /home/anagha/Downloads/msp430-47/bin/../lib/gcc/msp430/4.7.0/../../../../msp430/lib/mcpu-430x/mmpy-16/msr20/mc20/libc.a(puts.o)
 .debug_ranges  0x000000a8       0x20 /home/anagha/Downloads/msp430-47/bin/../lib/gcc/msp430/4.7.0/../../../../msp430/lib/mcpu-430x/mmpy-16/msr20/mc20/libc.a(rand.o)
 .debug_ranges  0x000000c8       0x10 /home/anagha/Downloads/msp430-47/bin/../lib/gcc/msp430/4.7.0/../../../../msp430/lib/mcpu-430x/mmpy-16/msr20/mc20/libc.a(strncmp.o)
 .debug_ranges  0x000000d8       0x10 /home/anagha/Downloads/msp430-47/bin/../lib/gcc/msp430/4.7.0/../../../../msp430/lib/mcpu-430x/mmpy-16/msr20/mc20/libc.a(memcmp.o)
 .debug_ranges  0x000000e8       0x10 /home/anagha/Downloads/msp430-47/bin/../lib/gcc/msp430/4.7.0/../../../../msp430/lib/mcpu-430x/mmpy-16/msr20/mc20/libc.a(strcpy.o)
 .debug_ranges  0x000000f8       0x10 /home/anagha/Downloads/msp430-47/bin/../lib/gcc/msp430/4.7.0/../../../../msp430/lib/mcpu-430x/mmpy-16/msr20/mc20/libc.a(strncpy.o)
 .debug_ranges  0x00000108       0x10 /home/anagha/Downloads/msp430-47/bin/../lib/gcc/msp430/4.7.0/../../../../msp430/lib/mcpu-430x/mmpy-16/msr20/mc20/libc.a(memcpy.o)
 .debug_ranges  0x00000118       0x10 /home/anagha/Downloads/msp430-47/bin/../lib/gcc/msp430/4.7.0/../../../../msp430/lib/mcpu-430x/mmpy-16/msr20/mc20/libc.a(memmove.o)
 .debug_ranges  0x00000128       0x10 /home/anagha/Downloads/msp430-47/bin/../lib/gcc/msp430/4.7.0/../../../../msp430/lib/mcpu-430x/mmpy-16/msr20/mc20/libc.a(memset.o)
                0x00005c00                PROVIDE (__stack, (ORIGIN (ram) + 0x4000))
                0x0000fe42                __data_start_rom = _etext
                0x0000ff80                __data_end_rom = (_etext + SIZEOF (.data))
OUTPUT(border-router.wismote elf32-msp430)

.gnu.attributes
                0x00000000       0x11
 .gnu.attributes
                0x00000000       0x11 /home/anagha/Downloads/msp430-47/bin/../lib/gcc/msp430/4.7.0/mcpu-430x/mmpy-16/msr20/mc20/crt0ivtbl64.o
 .gnu.attributes
                0x00000011       0x11 border-router.co
 .gnu.attributes
                0x00000022       0x11 obj_wismote/slip-bridge.o
 .gnu.attributes
                0x00000033       0x11 obj_wismote/httpd-simple.o
 .gnu.attributes
                0x00000044       0x11 obj_wismote/contiki-wismote-main.o
 .gnu.attributes
                0x00000055       0x11 contiki-wismote.a(contiki-wismote)
 .gnu.attributes
                0x00000066       0x11 contiki-wismote.a(button-sensor.o)
 .gnu.attributes
                0x00000077       0x11 contiki-wismote.a(xmem.o)
 .gnu.attributes
                0x00000088       0x11 contiki-wismote.a(node-id.o)
 .gnu.attributes
                0x00000099       0x11 contiki-wismote.a(sensors.o)
 .gnu.attributes
                0x000000aa       0x11 contiki-wismote.a(cc2520.o)
 .gnu.attributes
                0x000000bb       0x11 contiki-wismote.a(cc2520-arch.o)
 .gnu.attributes
                0x000000cc       0x11 contiki-wismote.a(uart1.o)
 .gnu.attributes
                0x000000dd       0x11 contiki-wismote.a(slip_uart1.o)
 .gnu.attributes
                0x000000ee       0x11 contiki-wismote.a(slip.o)
 .gnu.attributes
                0x000000ff       0x11 contiki-wismote.a(msp430.o)
 .gnu.attributes
                0x00000110       0x11 contiki-wismote.a(clock.o)
 .gnu.attributes
                0x00000121       0x11 contiki-wismote.a(leds.o)
 .gnu.attributes
                0x00000132       0x11 contiki-wismote.a(leds-arch.o)
 .gnu.attributes
                0x00000143       0x11 contiki-wismote.a(watchdog.o)
 .gnu.attributes
                0x00000154       0x11 contiki-wismote.a(rtimer-arch.o)
 .gnu.attributes
                0x00000165       0x11 contiki-wismote.a(autostart.o)
 .gnu.attributes
                0x00000176       0x11 contiki-wismote.a(ctimer.o)
 .gnu.attributes
                0x00000187       0x11 contiki-wismote.a(energest.o)
 .gnu.attributes
                0x00000198       0x11 contiki-wismote.a(etimer.o)
 .gnu.attributes
                0x000001a9       0x11 contiki-wismote.a(process.o)
 .gnu.attributes
                0x000001ba       0x11 contiki-wismote.a(rtimer.o)
 .gnu.attributes
                0x000001cb       0x11 contiki-wismote.a(timer.o)
 .gnu.attributes
                0x000001dc       0x11 contiki-wismote.a(list.o)
 .gnu.attributes
                0x000001ed       0x11 contiki-wismote.a(memb.o)
 .gnu.attributes
                0x000001fe       0x11 contiki-wismote.a(random.o)
 .gnu.attributes
                0x0000020f       0x11 contiki-wismote.a(sicslowpan.o)
 .gnu.attributes
                0x00000220       0x11 contiki-wismote.a(uip6.o)
 .gnu.attributes
                0x00000231       0x11 contiki-wismote.a(uip-ds6.o)
 .gnu.attributes
                0x00000242       0x11 contiki-wismote.a(uip-ds6-nbr.o)
 .gnu.attributes
                0x00000253       0x11 contiki-wismote.a(uip-ds6-route.o)
 .gnu.attributes
                0x00000264       0x11 contiki-wismote.a(uip-icmp6.o)
 .gnu.attributes
                0x00000275       0x11 contiki-wismote.a(uip-nd6.o)
 .gnu.attributes
                0x00000286       0x11 contiki-wismote.a(psock.o)
 .gnu.attributes
                0x00000297       0x11 contiki-wismote.a(tcpip.o)
 .gnu.attributes
                0x000002a8       0x11 contiki-wismote.a(uip-debug.o)
 .gnu.attributes
                0x000002b9       0x11 contiki-wismote.a(rpl.o)
 .gnu.attributes
                0x000002ca       0x11 contiki-wismote.a(rpl-dag.o)
 .gnu.attributes
                0x000002db       0x11 contiki-wismote.a(rpl-ext-header.)
 .gnu.attributes
                0x000002ec       0x11 contiki-wismote.a(rpl-icmp6.o)
 .gnu.attributes
                0x000002fd       0x11 contiki-wismote.a(rpl-mrhof.o)
 .gnu.attributes
                0x0000030e       0x11 contiki-wismote.a(rpl-timers.o)
 .gnu.attributes
                0x0000031f       0x11 contiki-wismote.a(linkaddr.o)
 .gnu.attributes
                0x00000330       0x11 contiki-wismote.a(link-stats.o)
 .gnu.attributes
                0x00000341       0x11 contiki-wismote.a(nbr-table.o)
 .gnu.attributes
                0x00000352       0x11 contiki-wismote.a(net-debug.o)
 .gnu.attributes
                0x00000363       0x11 contiki-wismote.a(packetbuf.o)
 .gnu.attributes
                0x00000374       0x11 contiki-wismote.a(queuebuf.o)
 .gnu.attributes
                0x00000385       0x11 contiki-wismote.a(csma.o)
 .gnu.attributes
                0x00000396       0x11 contiki-wismote.a(framer-802154.o)
 .gnu.attributes
                0x000003a7       0x11 contiki-wismote.a(mac.o)
 .gnu.attributes
                0x000003b8       0x11 contiki-wismote.a(nullrdc.o)
 .gnu.attributes
                0x000003c9       0x11 contiki-wismote.a(nullsec.o)
 .gnu.attributes
                0x000003da       0x11 contiki-wismote.a(spi.o)
 .gnu.attributes
                0x000003eb       0x11 contiki-wismote.a(stimer.o)
 .gnu.attributes
                0x000003fc       0x11 contiki-wismote.a(rpl-nbr-policy.)
 .gnu.attributes
                0x0000040d       0x11 contiki-wismote.a(frame802154.o)
 .gnu.attributes
                0x0000041e       0x11 contiki-wismote.a(mac-sequence.o)
 .gnu.attributes
                0x0000042f       0x11 /home/anagha/Downloads/msp430-47/bin/../lib/gcc/msp430/4.7.0/mcpu-430x/mmpy-16/msr20/mc20/libgcc.a(_udivmod16.o)
 .gnu.attributes
                0x00000440       0x11 /home/anagha/Downloads/msp430-47/bin/../lib/gcc/msp430/4.7.0/mcpu-430x/mmpy-16/msr20/mc20/libgcc.a(_divmod16.o)
 .gnu.attributes
                0x00000451       0x11 /home/anagha/Downloads/msp430-47/bin/../lib/gcc/msp430/4.7.0/mcpu-430x/mmpy-16/msr20/mc20/libgcc.a(_udivmod32.o)
 .gnu.attributes
                0x00000462       0x11 /home/anagha/Downloads/msp430-47/bin/../lib/gcc/msp430/4.7.0/mcpu-430x/mmpy-16/msr20/mc20/libgcc.a(_divmod32.o)
 .gnu.attributes
                0x00000473       0x11 /home/anagha/Downloads/msp430-47/bin/../lib/gcc/msp430/4.7.0/../../../../msp430/lib/mcpu-430x/mmpy-16/msr20/mc20/libc.a(printf.o)
 .gnu.attributes
                0x00000484       0x11 /home/anagha/Downloads/msp430-47/bin/../lib/gcc/msp430/4.7.0/../../../../msp430/lib/mcpu-430x/mmpy-16/msr20/mc20/libc.a(sprintf.o)
 .gnu.attributes
                0x00000495       0x11 /home/anagha/Downloads/msp430-47/bin/../lib/gcc/msp430/4.7.0/../../../../msp430/lib/mcpu-430x/mmpy-16/msr20/mc20/libc.a(vuprintf.o)
 .gnu.attributes
                0x000004a6       0x11 /home/anagha/Downloads/msp430-47/bin/../lib/gcc/msp430/4.7.0/../../../../msp430/lib/mcpu-430x/mmpy-16/msr20/mc20/libc.a(puts.o)
 .gnu.attributes
                0x000004b7       0x11 /home/anagha/Downloads/msp430-47/bin/../lib/gcc/msp430/4.7.0/../../../../msp430/lib/mcpu-430x/mmpy-16/msr20/mc20/libc.a(rand.o)
 .gnu.attributes
                0x000004c8       0x11 /home/anagha/Downloads/msp430-47/bin/../lib/gcc/msp430/4.7.0/../../../../msp430/lib/mcpu-430x/mmpy-16/msr20/mc20/libc.a(strncmp.o)
 .gnu.attributes
                0x000004d9       0x11 /home/anagha/Downloads/msp430-47/bin/../lib/gcc/msp430/4.7.0/../../../../msp430/lib/mcpu-430x/mmpy-16/msr20/mc20/libc.a(memcmp.o)
 .gnu.attributes
                0x000004ea       0x11 /home/anagha/Downloads/msp430-47/bin/../lib/gcc/msp430/4.7.0/../../../../msp430/lib/mcpu-430x/mmpy-16/msr20/mc20/libc.a(strcpy.o)
 .gnu.attributes
                0x000004fb       0x11 /home/anagha/Downloads/msp430-47/bin/../lib/gcc/msp430/4.7.0/../../../../msp430/lib/mcpu-430x/mmpy-16/msr20/mc20/libc.a(strncpy.o)
 .gnu.attributes
                0x0000050c       0x11 /home/anagha/Downloads/msp430-47/bin/../lib/gcc/msp430/4.7.0/../../../../msp430/lib/mcpu-430x/mmpy-16/msr20/mc20/libc.a(memcpy.o)
 .gnu.attributes
                0x0000051d       0x11 /home/anagha/Downloads/msp430-47/bin/../lib/gcc/msp430/4.7.0/../../../../msp430/lib/mcpu-430x/mmpy-16/msr20/mc20/libc.a(memmove.o)
 .gnu.attributes
                0x0000052e       0x11 /home/anagha/Downloads/msp430-47/bin/../lib/gcc/msp430/4.7.0/../../../../msp430/lib/mcpu-430x/mmpy-16/msr20/mc20/libc.a(memset.o)
 .gnu.attributes
                0x0000053f       0x11 /home/anagha/Downloads/msp430-47/bin/../lib/gcc/msp430/4.7.0/mcpu-430x/mmpy-16/msr20/mc20/libgcc.a(_mulsi3.o)
 .gnu.attributes
                0x00000550       0x11 /home/anagha/Downloads/msp430-47/bin/../lib/gcc/msp430/4.7.0/mcpu-430x/mmpy-16/msr20/mc20/libgcc.a(_udivmod64.o)
 .gnu.attributes
                0x00000561       0x11 /home/anagha/Downloads/msp430-47/bin/../lib/gcc/msp430/4.7.0/mcpu-430x/mmpy-16/msr20/mc20/libcrt0.a(_reset_vector__.o)
 .gnu.attributes
                0x00000572       0x11 /home/anagha/Downloads/msp430-47/bin/../lib/gcc/msp430/4.7.0/mcpu-430x/mmpy-16/msr20/mc20/libcrt0.a(__watchdog_support.o)
 .gnu.attributes
                0x00000583       0x11 /home/anagha/Downloads/msp430-47/bin/../lib/gcc/msp430/4.7.0/mcpu-430x/mmpy-16/msr20/mc20/libcrt0.a(__init_stack.o)
 .gnu.attributes
                0x00000594       0x11 /home/anagha/Downloads/msp430-47/bin/../lib/gcc/msp430/4.7.0/mcpu-430x/mmpy-16/msr20/mc20/libcrt0.a(__low_level_init.o)
 .gnu.attributes
                0x000005a5       0x11 /home/anagha/Downloads/msp430-47/bin/../lib/gcc/msp430/4.7.0/mcpu-430x/mmpy-16/msr20/mc20/libcrt0.a(_copy_data.o)
 .gnu.attributes
                0x000005b6       0x11 /home/anagha/Downloads/msp430-47/bin/../lib/gcc/msp430/4.7.0/mcpu-430x/mmpy-16/msr20/mc20/libcrt0.a(_clear_bss.o)
 .gnu.attributes
                0x000005c7       0x11 /home/anagha/Downloads/msp430-47/bin/../lib/gcc/msp430/4.7.0/mcpu-430x/mmpy-16/msr20/mc20/libcrt0.a(__stop_progExec__.o)
 .gnu.attributes
                0x000005d8       0x11 /home/anagha/Downloads/msp430-47/bin/../lib/gcc/msp430/4.7.0/mcpu-430x/mmpy-16/msr20/mc20/libcrt0.a(_endless_loop__.o)
 .gnu.attributes
                0x000005e9       0x11 /home/anagha/Downloads/msp430-47/bin/../lib/gcc/msp430/4.7.0/mcpu-430x/mmpy-16/msr20/mc20/libcrt0.a(_unexpected_.o)
